(lp0
(iframe
frame
p1
(dp2
S'curr_angle'
p3
I0
sS'tick'
p4
I0
sS'pos'
p5
ccopy_reg
_reconstructor
p6
(ckivy.vector
Vector
p7
c__builtin__
list
p8
(lp9
I200
aI100
atp10
Rp11
sba(iframe
frame
p12
(dp13
g3
F1.0
sg4
I1
sg5
g6
(g7
g8
(lp14
F200.9998476951564
aF100.01745240643729
atp15
Rp16
sba(iframe
frame
p17
(dp18
g3
F2.0
sg4
I2
sg5
g6
(g7
g8
(lp19
F201.9992385221755
aF100.0523519031398
atp20
Rp21
sba(iframe
frame
p22
(dp23
g3
F3.0
sg4
I3
sg5
g6
(g7
g8
(lp24
F202.99786805693006
aF100.10468785938274
atp25
Rp26
sba(iframe
frame
p27
(dp28
g3
F4.0
sg4
I4
sg5
g6
(g7
g8
(lp29
F203.99543210718988
aF100.17444433312686
atp30
Rp31
sba(iframe
frame
p32
(dp33
g3
F5.0
sg4
I5
sg5
g6
(g7
g8
(lp34
F204.99162680528164
aF100.26160007587451
atp35
Rp36
sba(iframe
frame
p37
(dp38
g3
F6.0
sg4
I6
sg5
g6
(g7
g8
(lp39
F205.98614870064992
aF100.36612853914217
atp40
Rp41
sba(iframe
frame
p42
(dp43
g3
F7.0
sg4
I7
sg5
g6
(g7
g8
(lp44
F206.97869485229126
aF100.48799788254732
atp45
Rp46
sba(iframe
frame
p47
(dp48
g3
F8.0
sg4
I8
sg5
g6
(g7
g8
(lp49
F207.9689629210328
aF100.62717098350738
atp50
Rp51
sba(iframe
frame
p52
(dp53
g3
F9.0
sg4
I9
sg5
g6
(g7
g8
(lp54
F208.95665126162794
aF100.78360544854762
atp55
Rp56
sba(iframe
frame
p57
(dp58
g3
F10.0
sg4
I10
sg5
g6
(g7
g8
(lp59
F209.94145901464015
aF100.95725362621455
atp60
Rp61
sba(iframe
frame
p62
(dp63
g3
F11.0
sg4
I11
sg5
g6
(g7
g8
(lp64
F210.92308619808782
aF101.1480626215911
atp65
Rp66
sba(iframe
frame
p67
(dp68
g3
F11.0
sg4
I12
sg5
g6
(g7
g8
(lp69
F211.9047133815355
aF101.33887161696764
atp70
Rp71
sba(iframe
frame
p72
(dp73
g3
F11.0
sg4
I13
sg5
g6
(g7
g8
(lp74
F212.88634056498316
aF101.52968061234418
atp75
Rp76
sba(iframe
frame
p77
(dp78
g3
F11.0
sg4
I14
sg5
g6
(g7
g8
(lp79
F213.86796774843083
aF101.72048960772072
atp80
Rp81
sba(iframe
frame
p82
(dp83
g3
F11.0
sg4
I15
sg5
g6
(g7
g8
(lp84
F214.8495949318785
aF101.91129860309726
atp85
Rp86
sba(iframe
frame
p87
(dp88
g3
F12.0
sg4
I16
sg5
g6
(g7
g8
(lp89
F215.82774253261232
aF102.11921029391502
atp90
Rp91
sba(iframe
frame
p92
(dp93
g3
F13.0
sg4
I17
sg5
g6
(g7
g8
(lp94
F216.80211259739755
aF102.34416134825888
atp95
Rp96
sba(iframe
frame
p97
(dp98
g3
F14.0
sg4
I18
sg5
g6
(g7
g8
(lp99
F217.77240832367355
aF102.58608324385855
atp100
Rp101
sba(iframe
frame
p102
(dp103
g3
F15.0
sg4
I19
sg5
g6
(g7
g8
(lp104
F218.7383341499626
aF102.84490228896108
atp105
Rp106
sba(iframe
frame
p107
(dp108
g3
F16.0
sg4
I20
sg5
g6
(g7
g8
(lp109
F219.69959584590094
aF103.12053964477808
atp110
Rp111
sba(iframe
frame
p112
(dp113
g3
F17.0
sg4
I21
sg5
g6
(g7
g8
(lp114
F220.65590060186398
aF103.41291134950082
atp115
Rp116
sba(iframe
frame
p117
(dp118
g3
F18.0
sg4
I22
sg5
g6
(g7
g8
(lp119
F221.60695711815913
aF103.72192834387576
atp120
Rp121
sba(iframe
frame
p122
(dp123
g3
F19.0
sg4
I23
sg5
g6
(g7
g8
(lp124
F222.55247569375845
aF104.04749649833292
atp125
Rp126
sba(iframe
frame
p127
(dp128
g3
F20.0
sg4
I24
sg5
g6
(g7
g8
(lp129
F223.49216831454436
aF104.38951664165859
atp130
Rp131
sba(iframe
frame
p132
(dp133
g3
F21.0
sg4
I25
sg5
g6
(g7
g8
(lp134
F224.42574874104156
aF104.74788459120388
atp135
Rp136
sba(iframe
frame
p137
(dp138
g3
F22.0
sg4
I26
sg5
g6
(g7
g8
(lp139
F225.35293259560834
aF105.1224911846198
atp140
Rp141
sba(iframe
frame
p142
(dp143
g3
F23.0
sg4
I27
sg5
g6
(g7
g8
(lp144
F226.27343744906076
aF105.51322231310908
atp145
Rp146
sba(iframe
frame
p147
(dp148
g3
F24.0
sg4
I28
sg5
g6
(g7
g8
(lp149
F227.18698290670338
aF105.91995895618489
atp150
Rp151
sba(iframe
frame
p152
(dp153
g3
F25.0
sg4
I29
sg5
g6
(g7
g8
(lp154
F228.09329069374002
aF106.34257721792558
atp155
Rp156
sba(iframe
frame
p157
(dp158
g3
F26.0
sg4
I30
sg5
g6
(g7
g8
(lp159
F228.9920847400392
aF106.78094836471466
atp160
Rp161
sba(iframe
frame
p162
(dp163
g3
F27.0
sg4
I31
sg5
g6
(g7
g8
(lp164
F229.88309126422755
aF107.23493886445421
atp165
Rp166
sba(iframe
frame
p167
(dp168
g3
F28.0
sg4
I32
sg5
g6
(g7
g8
(lp169
F230.76603885708647
aF107.70441042724009
atp170
Rp171
sba(iframe
frame
p172
(dp173
g3
F29.0
sg4
I33
sg5
g6
(g7
g8
(lp174
F231.64065856422587
aF108.18922004748643
atp175
Rp176
sba(iframe
frame
p177
(dp178
g3
F30.0
sg4
I34
sg5
g6
(g7
g8
(lp179
F232.50668396801032
aF108.68922004748643
atp180
Rp181
sba(iframe
frame
p182
(dp183
g3
F31.0
sg4
I35
sg5
g6
(g7
g8
(lp184
F233.36385126871244
aF109.20425812239648
atp185
Rp186
sba(iframe
frame
p187
(dp188
g3
F32.0
sg4
I36
sg5
g6
(g7
g8
(lp189
F234.21189936486886
aF109.73417738662968
atp190
Rp191
sba(iframe
frame
p192
(dp193
g3
F33.0
sg4
I37
sg5
g6
(g7
g8
(lp194
F235.05056993281428
aF110.2788164216447
atp195
Rp196
sba(iframe
frame
p197
(dp198
g3
F34.0
sg4
I38
sg5
g6
(g7
g8
(lp199
F235.87960750536934
aF110.83800932511545
atp200
Rp201
sba(iframe
frame
p202
(dp203
g3
F35.0
sg4
I39
sg5
g6
(g7
g8
(lp204
F236.69875954965832
aF111.4115857614665
atp205
Rp206
sba(iframe
frame
p207
(dp208
g3
F36.0
sg4
I40
sg5
g6
(g7
g8
(lp209
F237.50777654403328
aF111.99937101375897
atp210
Rp211
sba(iframe
frame
p212
(dp213
g3
F37.0
sg4
I41
sg5
g6
(g7
g8
(lp214
F238.30641205408057
aF112.60118603691102
atp215
Rp216
sba(iframe
frame
p217
(dp218
g3
F38.0
sg4
I42
sg5
g6
(g7
g8
(lp219
F239.0944228076873
aF113.21684751223667
atp220
Rp221
sba(iframe
frame
p222
(dp223
g3
F39.0
sg4
I43
sg5
g6
(g7
g8
(lp224
F239.87156876914426
aF113.8461679032865
atp225
Rp226
sba(iframe
frame
p227
(dp228
g3
F40.0
sg4
I44
sg5
g6
(g7
g8
(lp229
F240.63761321226323
aF114.48895551297304
atp230
Rp231
sba(iframe
frame
p232
(dp233
g3
F41.0
sg4
I45
sg5
g6
(g7
g8
(lp234
F241.392322792486
aF115.14501454196355
atp235
Rp236
sba(iframe
frame
p237
(dp238
g3
F42.0
sg4
I46
sg5
g6
(g7
g8
(lp239
F242.1354676179634
aF115.81414514832241
atp240
Rp241
sba(iframe
frame
p242
(dp243
g3
F43.0
sg4
I47
sg5
g6
(g7
g8
(lp244
F242.86682131958258
aF116.4961435083849
atp245
Rp246
sba(iframe
frame
p247
(dp248
g3
F44.0
sg4
I48
sg5
g6
(g7
g8
(lp249
F243.58616111992123
aF117.1908018788439
atp250
Rp251
sba(iframe
frame
p252
(dp253
g3
F45.0
sg4
I49
sg5
g6
(g7
g8
(lp254
F244.29326790110778
aF117.89790866003045
atp255
Rp256
sba(iframe
frame
p257
(dp258
g3
F46.0
sg4
I50
sg5
g6
(g7
g8
(lp259
F244.98792627156678
aF118.6172484603691
atp260
Rp261
sba(iframe
frame
p262
(dp263
g3
F47.0
sg4
I51
sg5
g6
(g7
g8
(lp264
F245.66992463162927
aF119.34860216198827
atp265
Rp266
sba(iframe
frame
p267
(dp268
g3
F48.0
sg4
I52
sg5
g6
(g7
g8
(lp269
F246.33905523798813
aF120.09174698746567
atp270
Rp271
sba(iframe
frame
p272
(dp273
g3
F49.0
sg4
I53
sg5
g6
(g7
g8
(lp274
F246.99511426697865
aF120.84645656768843
atp275
Rp276
sba(iframe
frame
p277
(dp278
g3
F50.0
sg4
I54
sg5
g6
(g7
g8
(lp279
F247.63790187666518
aF121.6125010108074
atp280
Rp281
sba(iframe
frame
p282
(dp283
g3
F51.0
sg4
I55
sg5
g6
(g7
g8
(lp284
F248.26722226771503
aF122.38964697226437
atp285
Rp286
sba(iframe
frame
p287
(dp288
g3
F52.0
sg4
I56
sg5
g6
(g7
g8
(lp289
F248.88288374304068
aF123.1776577258711
atp290
Rp291
sba(iframe
frame
p292
(dp293
g3
F53.0
sg4
I57
sg5
g6
(g7
g8
(lp294
F249.48469876619274
aF123.97629323591839
atp295
Rp296
sba(iframe
frame
p297
(dp298
g3
F54.0
sg4
I58
sg5
g6
(g7
g8
(lp299
F250.0724840184852
aF124.78531023029333
atp300
Rp301
sba(iframe
frame
p302
(dp303
g3
F55.0
sg4
I59
sg5
g6
(g7
g8
(lp304
F250.64606045483623
aF125.60446227458233
atp305
Rp306
sba(iframe
frame
p307
(dp308
g3
F56.0
sg4
I60
sg5
g6
(g7
g8
(lp309
F251.20525335830698
aF126.43349984713737
atp310
Rp311
sba(iframe
frame
p312
(dp313
g3
F57.0
sg4
I61
sg5
g6
(g7
g8
(lp314
F251.749892393322
aF127.2721704150828
atp315
Rp316
sba(iframe
frame
p317
(dp318
g3
F58.0
sg4
I62
sg5
g6
(g7
g8
(lp319
F252.2798116575552
aF128.12021851123922
atp320
Rp321
sba(iframe
frame
p322
(dp323
g3
F59.0
sg4
I63
sg5
g6
(g7
g8
(lp324
F252.79484973246525
aF128.97738581194133
atp325
Rp326
sba(iframe
frame
p327
(dp328
g3
F60.0
sg4
I64
sg5
g6
(g7
g8
(lp329
F253.29484973246525
aF129.84341121572578
atp330
Rp331
sba(iframe
frame
p332
(dp333
g3
F61.0
sg4
I65
sg5
g6
(g7
g8
(lp334
F253.77965935271158
aF130.71803092286518
atp335
Rp336
sba(iframe
frame
p337
(dp338
g3
F62.0
sg4
I66
sg5
g6
(g7
g8
(lp339
F254.24913091549746
aF131.6009785157241
atp340
Rp341
sba(iframe
frame
p342
(dp343
g3
F63.0
sg4
I67
sg5
g6
(g7
g8
(lp344
F254.703121415237
aF132.49198503991246
atp345
Rp346
sba(iframe
frame
p347
(dp348
g3
F64.0
sg4
I68
sg5
g6
(g7
g8
(lp349
F255.1414925620261
aF133.39077908621164
atp350
Rp351
sba(iframe
frame
p352
(dp353
g3
F65.0
sg4
I69
sg5
g6
(g7
g8
(lp354
F255.56411082376678
aF134.29708687324828
atp355
Rp356
sba(iframe
frame
p357
(dp358
g3
F66.0
sg4
I70
sg5
g6
(g7
g8
(lp359
F255.97084746684257
aF135.2106323308909
atp360
Rp361
sba(iframe
frame
p362
(dp363
g3
F67.0
sg4
I71
sg5
g6
(g7
g8
(lp364
F256.3615785953318
aF136.13113718434332
atp365
Rp366
sba(iframe
frame
p367
(dp368
g3
F68.0
sg4
I72
sg5
g6
(g7
g8
(lp369
F256.73618518874775
aF137.0583210389101
atp370
Rp371
sba(iframe
frame
p372
(dp373
g3
F69.0
sg4
I73
sg5
g6
(g7
g8
(lp374
F257.09455313829307
aF137.9919014654073
atp375
Rp376
sba(iframe
frame
p377
(dp378
g3
F70.0
sg4
I74
sg5
g6
(g7
g8
(lp379
F257.43657328161873
aF138.9315940861932
atp380
Rp381
sba(iframe
frame
p382
(dp383
g3
F71.0
sg4
I75
sg5
g6
(g7
g8
(lp384
F257.76214143607586
aF139.87711266179252
atp385
Rp386
sba(iframe
frame
p387
(dp388
g3
F72.0
sg4
I76
sg5
g6
(g7
g8
(lp389
F258.0711584304508
aF140.82816917808768
atp390
Rp391
sba(iframe
frame
p392
(dp393
g3
F73.0
sg4
I77
sg5
g6
(g7
g8
(lp394
F258.3635301351735
aF141.7844739340507
atp395
Rp396
sba(iframe
frame
p397
(dp398
g3
F74.0
sg4
I78
sg5
g6
(g7
g8
(lp399
F258.63916749099053
aF142.74573562998904
atp400
Rp401
sba(iframe
frame
p402
(dp403
g3
F75.0
sg4
I79
sg5
g6
(g7
g8
(lp404
F258.8979865360931
aF143.7116614562781
atp405
Rp406
sba(iframe
frame
p407
(dp408
g3
F76.0
sg4
I80
sg5
g6
(g7
g8
(lp409
F259.13990843169273
aF144.6819571825541
atp410
Rp411
sba(iframe
frame
p412
(dp413
g3
F77.0
sg4
I81
sg5
g6
(g7
g8
(lp414
F259.3648594860366
aF145.65632724733933
atp415
Rp416
sba(iframe
frame
p417
(dp418
g3
F78.0
sg4
I82
sg5
g6
(g7
g8
(lp419
F259.57277117685436
aF146.63447484807313
atp420
Rp421
sba(iframe
frame
p422
(dp423
g3
F79.0
sg4
I83
sg5
g6
(g7
g8
(lp424
F259.7635801722309
aF147.6161020315208
atp425
Rp426
sba(iframe
frame
p427
(dp428
g3
F80.0
sg4
I84
sg5
g6
(g7
g8
(lp429
F259.9372283498978
aF148.600909784533
atp430
Rp431
sba(iframe
frame
p432
(dp433
g3
F81.0
sg4
I85
sg5
g6
(g7
g8
(lp434
F260.093662814938
aF149.58859812512813
atp435
Rp436
sba(iframe
frame
p437
(dp438
g3
F82.0
sg4
I86
sg5
g6
(g7
g8
(lp439
F260.2328359158981
aF150.5788661938697
atp440
Rp441
sba(iframe
frame
p442
(dp443
g3
F83.0
sg4
I87
sg5
g6
(g7
g8
(lp444
F260.3547052593032
aF151.57141234551102
atp445
Rp446
sba(iframe
frame
p447
(dp448
g3
F84.0
sg4
I88
sg5
g6
(g7
g8
(lp449
F260.45923372257084
aF152.5659342408793
atp450
Rp451
sba(iframe
frame
p452
(dp453
g3
F85.0
sg4
I89
sg5
g6
(g7
g8
(lp454
F260.5463894653185
aF153.56212893897106
atp455
Rp456
sba(iframe
frame
p457
(dp458
g3
F86.0
sg4
I90
sg5
g6
(g7
g8
(lp459
F260.6161459390626
aF154.55969298923088
atp460
Rp461
sba(iframe
frame
p462
(dp463
g3
F87.0
sg4
I91
sg5
g6
(g7
g8
(lp464
F260.66848189530555
aF155.55832252398545
atp465
Rp466
sba(iframe
frame
p467
(dp468
g3
F88.0
sg4
I92
sg5
g6
(g7
g8
(lp469
F260.70338139200805
aF156.55771335100454
atp470
Rp471
sba(iframe
frame
p472
(dp473
g3
F89.0
sg4
I93
sg5
g6
(g7
g8
(lp474
F260.7208337984453
aF157.55756104616094
atp475
Rp476
sba(iframe
frame
p477
(dp478
g3
F90.0
sg4
I94
sg5
g6
(g7
g8
(lp479
F260.7208337984453
aF158.55756104616094
atp480
Rp481
sba(iframe
frame
p482
(dp483
g3
F91.0
sg4
I95
sg5
g6
(g7
g8
(lp484
F260.70338139200805
aF159.55740874131735
atp485
Rp486
sba(iframe
frame
p487
(dp488
g3
F92.0
sg4
I96
sg5
g6
(g7
g8
(lp489
F260.66848189530555
aF160.55679956833643
atp490
Rp491
sba(iframe
frame
p492
(dp493
g3
F93.0
sg4
I97
sg5
g6
(g7
g8
(lp494
F260.6161459390626
aF161.555429103091
atp495
Rp496
sba(iframe
frame
p497
(dp498
g3
F94.0
sg4
I98
sg5
g6
(g7
g8
(lp499
F260.5463894653185
aF162.55299315335083
atp500
Rp501
sba(iframe
frame
p502
(dp503
g3
F95.0
sg4
I99
sg5
g6
(g7
g8
(lp504
F260.45923372257084
aF163.54918785144258
atp505
Rp506
sba(iframe
frame
p507
(dp508
g3
F94.0
sg4
I100
sg5
g6
(g7
g8
(lp509
F260.3894772488267
aF164.5467519017024
atp510
Rp511
sba(iframe
frame
p512
(dp513
g3
F93.0
sg4
I101
sg5
g6
(g7
g8
(lp514
F260.3371412925838
aF165.54538143645698
atp515
Rp516
sba(iframe
frame
p517
(dp518
g3
F92.0
sg4
I102
sg5
g6
(g7
g8
(lp519
F260.3022417958813
aF166.54477226347606
atp520
Rp521
sba(iframe
frame
p522
(dp523
g3
F91.0
sg4
I103
sg5
g6
(g7
g8
(lp524
F260.28478938944403
aF167.54461995863247
atp525
Rp526
sba(iframe
frame
p527
(dp528
g3
F90.0
sg4
I104
sg5
g6
(g7
g8
(lp529
F260.28478938944403
aF168.54461995863247
atp530
Rp531
sba(iframe
frame
p532
(dp533
g3
F89.0
sg4
I105
sg5
g6
(g7
g8
(lp534
F260.3022417958813
aF169.54446765378887
atp535
Rp536
sba(iframe
frame
p537
(dp538
g3
F88.0
sg4
I106
sg5
g6
(g7
g8
(lp539
F260.3371412925838
aF170.54385848080796
atp540
Rp541
sba(iframe
frame
p542
(dp543
g3
F87.0
sg4
I107
sg5
g6
(g7
g8
(lp544
F260.3894772488267
aF171.54248801556253
atp545
Rp546
sba(iframe
frame
p547
(dp548
g3
F86.0
sg4
I108
sg5
g6
(g7
g8
(lp549
F260.45923372257084
aF172.54005206582235
atp550
Rp551
sba(iframe
frame
p552
(dp553
g3
F85.0
sg4
I109
sg5
g6
(g7
g8
(lp554
F260.5463894653185
aF173.5362467639141
atp555
Rp556
sba(iframe
frame
p557
(dp558
g3
F84.0
sg4
I110
sg5
g6
(g7
g8
(lp559
F260.6509179285861
aF174.5307686592824
atp560
Rp561
sba(iframe
frame
p562
(dp563
g3
F83.0
sg4
I111
sg5
g6
(g7
g8
(lp564
F260.77278727199126
aF175.52331481092372
atp565
Rp566
sba(iframe
frame
p567
(dp568
g3
F82.0
sg4
I112
sg5
g6
(g7
g8
(lp569
F260.91196037295134
aF176.51358287966528
atp570
Rp571
sba(iframe
frame
p572
(dp573
g3
F81.0
sg4
I113
sg5
g6
(g7
g8
(lp574
F261.06839483799155
aF177.5012712202604
atp575
Rp576
sba(iframe
frame
p577
(dp578
g3
F80.0
sg4
I114
sg5
g6
(g7
g8
(lp579
F261.24204301565845
aF178.4860789732726
atp580
Rp581
sba(iframe
frame
p582
(dp583
g3
F79.0
sg4
I115
sg5
g6
(g7
g8
(lp584
F261.432852011035
aF179.46770615672028
atp585
Rp586
sba(iframe
frame
p587
(dp588
g3
F78.0
sg4
I116
sg5
g6
(g7
g8
(lp589
F261.64076370185273
aF180.44585375745407
atp590
Rp591
sba(iframe
frame
p592
(dp593
g3
F77.0
sg4
I117
sg5
g6
(g7
g8
(lp594
F261.8657147561966
aF181.4202238222393
atp595
Rp596
sba(iframe
frame
p597
(dp598
g3
F76.0
sg4
I118
sg5
g6
(g7
g8
(lp599
F262.10763665179627
aF182.3905195485153
atp600
Rp601
sba(iframe
frame
p602
(dp603
g3
F75.0
sg4
I119
sg5
g6
(g7
g8
(lp604
F262.3664556968988
aF183.35644537480437
atp605
Rp606
sba(iframe
frame
p607
(dp608
g3
F74.0
sg4
I120
sg5
g6
(g7
g8
(lp609
F262.64209305271584
aF184.3177070707427
atp610
Rp611
sba(iframe
frame
p612
(dp613
g3
F73.0
sg4
I121
sg5
g6
(g7
g8
(lp614
F262.93446475743855
aF185.27401182670573
atp615
Rp616
sba(iframe
frame
p617
(dp618
g3
F72.0
sg4
I122
sg5
g6
(g7
g8
(lp619
F263.2434817518135
aF186.22506834300088
atp620
Rp621
sba(iframe
frame
p622
(dp623
g3
F71.0
sg4
I123
sg5
g6
(g7
g8
(lp624
F263.5690499062706
aF187.1705869186002
atp625
Rp626
sba(iframe
frame
p627
(dp628
g3
F70.0
sg4
I124
sg5
g6
(g7
g8
(lp629
F263.9110700495963
aF188.1102795393861
atp630
Rp631
sba(iframe
frame
p632
(dp633
g3
F69.0
sg4
I125
sg5
g6
(g7
g8
(lp634
F264.2694379991416
aF189.0438599658833
atp635
Rp636
sba(iframe
frame
p637
(dp638
g3
F70.0
sg4
I126
sg5
g6
(g7
g8
(lp639
F264.61145814246726
aF189.98355258666922
atp640
Rp641
sba(iframe
frame
p642
(dp643
g3
F69.0
sg4
I127
sg5
g6
(g7
g8
(lp644
F264.96982609201257
aF190.91713301316642
atp645
Rp646
sba(iframe
frame
p647
(dp648
g3
F70.0
sg4
I128
sg5
g6
(g7
g8
(lp649
F265.31184623533824
aF191.85682563395233
atp650
Rp651
sba(iframe
frame
p652
(dp653
g3
F69.0
sg4
I129
sg5
g6
(g7
g8
(lp654
F265.67021418488355
aF192.79040606044953
atp655
Rp656
sba(iframe
frame
p657
(dp658
g3
F68.0
sg4
I130
sg5
g6
(g7
g8
(lp659
F266.0448207782995
aF193.7175899150163
atp660
Rp661
sba(iframe
frame
p662
(dp663
g3
F69.0
sg4
I131
sg5
g6
(g7
g8
(lp664
F266.4031887278448
aF194.6511703415135
atp665
Rp666
sba(iframe
frame
p667
(dp668
g3
F68.0
sg4
I132
sg5
g6
(g7
g8
(lp669
F266.7777953212607
aF195.57835419608028
atp670
Rp671
sba(iframe
frame
p672
(dp673
g3
F67.0
sg4
I133
sg5
g6
(g7
g8
(lp674
F267.16852644975
aF196.4988590495327
atp675
Rp676
sba(iframe
frame
p677
(dp678
g3
F68.0
sg4
I134
sg5
g6
(g7
g8
(lp679
F267.54313304316594
aF197.4260429040995
atp680
Rp681
sba(iframe
frame
p682
(dp683
g3
F67.0
sg4
I135
sg5
g6
(g7
g8
(lp684
F267.9338641716552
aF198.34654775755192
atp685
Rp686
sba(iframe
frame
p687
(dp688
g3
F66.0
sg4
I136
sg5
g6
(g7
g8
(lp689
F268.34060081473103
aF199.26009321519453
atp690
Rp691
sba(iframe
frame
p692
(dp693
g3
F67.0
sg4
I137
sg5
g6
(g7
g8
(lp694
F268.7313319432203
aF200.18059806864696
atp695
Rp696
sba(iframe
frame
p697
(dp698
g3
F66.0
sg4
I138
sg5
g6
(g7
g8
(lp699
F269.13806858629613
aF201.09414352628957
atp700
Rp701
sba(iframe
frame
p702
(dp703
g3
F67.0
sg4
I139
sg5
g6
(g7
g8
(lp704
F269.5287997147854
aF202.014648379742
atp705
Rp706
sba(iframe
frame
p707
(dp708
g3
F66.0
sg4
I140
sg5
g6
(g7
g8
(lp709
F269.9355363578612
aF202.9281938373846
atp710
Rp711
sba(iframe
frame
p712
(dp713
g3
F65.0
sg4
I141
sg5
g6
(g7
g8
(lp714
F270.3581546196019
aF203.83450162442125
atp715
Rp716
sba(iframe
frame
p717
(dp718
g3
F66.0
sg4
I142
sg5
g6
(g7
g8
(lp719
F270.76489126267774
aF204.74804708206386
atp720
Rp721
sba(iframe
frame
p722
(dp723
g3
F65.0
sg4
I143
sg5
g6
(g7
g8
(lp724
F271.18750952441843
aF205.6543548691005
atp725
Rp726
sba(iframe
frame
p727
(dp728
g3
F64.0
sg4
I144
sg5
g6
(g7
g8
(lp729
F271.6258806712075
aF206.55314891539967
atp730
Rp731
sba(iframe
frame
p732
(dp733
g3
F65.0
sg4
I145
sg5
g6
(g7
g8
(lp734
F272.0484989329482
aF207.4594567024363
atp735
Rp736
sba(iframe
frame
p737
(dp738
g3
F64.0
sg4
I146
sg5
g6
(g7
g8
(lp739
F272.48687007973723
aF208.3582507487355
atp740
Rp741
sba(iframe
frame
p742
(dp743
g3
F65.0
sg4
I147
sg5
g6
(g7
g8
(lp744
F272.9094883414779
aF209.26455853577212
atp745
Rp746
sba(iframe
frame
p747
(dp748
g3
F64.0
sg4
I148
sg5
g6
(g7
g8
(lp749
F273.347859488267
aF210.1633525820713
atp750
Rp751
sba(iframe
frame
p752
(dp753
g3
F63.0
sg4
I149
sg5
g6
(g7
g8
(lp754
F273.80184998800655
aF211.05435910625965
atp755
Rp756
sba(iframe
frame
p757
(dp758
g3
F64.0
sg4
I150
sg5
g6
(g7
g8
(lp759
F274.2402211347956
aF211.95315315255883
atp760
Rp761
sba(iframe
frame
p762
(dp763
g3
F63.0
sg4
I151
sg5
g6
(g7
g8
(lp764
F274.6942116345352
aF212.84415967674718
atp765
Rp766
sba(iframe
frame
p767
(dp768
g3
F64.0
sg4
I152
sg5
g6
(g7
g8
(lp769
F275.13258278132423
aF213.74295372304636
atp770
Rp771
sba(iframe
frame
p772
(dp773
g3
F63.0
sg4
I153
sg5
g6
(g7
g8
(lp774
F275.5865732810638
aF214.6339602472347
atp775
Rp776
sba(iframe
frame
p777
(dp778
g3
F64.0
sg4
I154
sg5
g6
(g7
g8
(lp779
F276.02494442785286
aF215.53275429353388
atp780
Rp781
sba(iframe
frame
p782
(dp783
g3
F63.0
sg4
I155
sg5
g6
(g7
g8
(lp784
F276.47893492759243
aF216.42376081772224
atp785
Rp786
sba(iframe
frame
p787
(dp788
g3
F62.0
sg4
I156
sg5
g6
(g7
g8
(lp789
F276.9484064903783
aF217.30670841058117
atp790
Rp791
sba(iframe
frame
p792
(dp793
g3
F63.0
sg4
I157
sg5
g6
(g7
g8
(lp794
F277.4023969901179
aF218.19771493476952
atp795
Rp796
sba(iframe
frame
p797
(dp798
g3
F62.0
sg4
I158
sg5
g6
(g7
g8
(lp799
F277.8718685529038
aF219.08066252762845
atp800
Rp801
sba(iframe
frame
p802
(dp803
g3
F63.0
sg4
I159
sg5
g6
(g7
g8
(lp804
F278.32585905264335
aF219.9716690518168
atp805
Rp806
sba(iframe
frame
p807
(dp808
g3
F62.0
sg4
I160
sg5
g6
(g7
g8
(lp809
F278.79533061542924
aF220.85461664467573
atp810
Rp811
sba(iframe
frame
p812
(dp813
g3
F61.0
sg4
I161
sg5
g6
(g7
g8
(lp814
F279.28014023567556
aF221.72923635181513
atp815
Rp816
sba(iframe
frame
p817
(dp818
g3
F62.0
sg4
I162
sg5
g6
(g7
g8
(lp819
F279.74961179846144
aF222.61218394467406
atp820
Rp821
sba(iframe
frame
p822
(dp823
g3
F61.0
sg4
I163
sg5
g6
(g7
g8
(lp824
F280.23442141870777
aF223.48680365181346
atp825
Rp826
sba(iframe
frame
p827
(dp828
g3
F62.0
sg4
I164
sg5
g6
(g7
g8
(lp829
F280.70389298149365
aF224.3697512446724
atp830
Rp831
sba(iframe
frame
p832
(dp833
g3
F61.0
sg4
I165
sg5
g6
(g7
g8
(lp834
F281.18870260174
aF225.2443709518118
atp835
Rp836
sba(iframe
frame
p837
(dp838
g3
F62.0
sg4
I166
sg5
g6
(g7
g8
(lp839
F281.65817416452586
aF226.12731854467071
atp840
Rp841
sba(iframe
frame
p842
(dp843
g3
F61.0
sg4
I167
sg5
g6
(g7
g8
(lp844
F282.1429837847722
aF227.00193825181012
atp845
Rp846
sba(iframe
frame
p847
(dp848
g3
F60.0
sg4
I168
sg5
g6
(g7
g8
(lp849
F282.6429837847722
aF227.86796365559456
atp850
Rp851
sba(iframe
frame
p852
(dp853
g3
F61.0
sg4
I169
sg5
g6
(g7
g8
(lp854
F283.1277934050185
aF228.74258336273397
atp855
Rp856
sba(iframe
frame
p857
(dp858
g3
F60.0
sg4
I170
sg5
g6
(g7
g8
(lp859
F283.6277934050185
aF229.60860876651842
atp860
Rp861
sba(iframe
frame
p862
(dp863
g3
F61.0
sg4
I171
sg5
g6
(g7
g8
(lp864
F284.11260302526483
aF230.48322847365782
atp865
Rp866
sba(iframe
frame
p867
(dp868
g3
F60.0
sg4
I172
sg5
g6
(g7
g8
(lp869
F284.61260302526483
aF231.34925387744227
atp870
Rp871
sba(iframe
frame
p872
(dp873
g3
F61.0
sg4
I173
sg5
g6
(g7
g8
(lp874
F285.09741264551116
aF232.22387358458167
atp875
Rp876
sba(iframe
frame
p877
(dp878
g3
F60.0
sg4
I174
sg5
g6
(g7
g8
(lp879
F285.59741264551116
aF233.08989898836612
atp880
Rp881
sba(iframe
frame
p882
(dp883
g3
F61.0
sg4
I175
sg5
g6
(g7
g8
(lp884
F286.0822222657575
aF233.96451869550552
atp885
Rp886
sba(iframe
frame
p887
(dp888
g3
F60.0
sg4
I176
sg5
g6
(g7
g8
(lp889
F286.5822222657575
aF234.83054409928997
atp890
Rp891
sba(iframe
frame
p892
(dp893
g3
F59.0
sg4
I177
sg5
g6
(g7
g8
(lp894
F287.09726034066756
aF235.68771139999208
atp895
Rp896
sba(iframe
frame
p897
(dp898
g3
F60.0
sg4
I178
sg5
g6
(g7
g8
(lp899
F287.59726034066756
aF236.55373680377653
atp900
Rp901
sba(iframe
frame
p902
(dp903
g3
F59.0
sg4
I179
sg5
g6
(g7
g8
(lp904
F288.11229841557764
aF237.41090410447865
atp905
Rp906
sba(iframe
frame
p907
(dp908
g3
F60.0
sg4
I180
sg5
g6
(g7
g8
(lp909
F288.61229841557764
aF238.2769295082631
atp910
Rp911
sba(iframe
frame
p912
(dp913
g3
F59.0
sg4
I181
sg5
g6
(g7
g8
(lp914
F289.1273364904877
aF239.1340968089652
atp915
Rp916
sba(iframe
frame
p917
(dp918
g3
F60.0
sg4
I182
sg5
g6
(g7
g8
(lp919
F289.6273364904877
aF240.00012221274966
atp920
Rp921
sba(iframe
frame
p922
(dp923
g3
F59.0
sg4
I183
sg5
g6
(g7
g8
(lp924
F290.1423745653978
aF240.85728951345178
atp925
Rp926
sba(iframe
frame
p927
(dp928
g3
F60.0
sg4
I184
sg5
g6
(g7
g8
(lp929
F290.6423745653978
aF241.72331491723622
atp930
Rp931
sba(iframe
frame
p932
(dp933
g3
F59.0
sg4
I185
sg5
g6
(g7
g8
(lp934
F291.1574126403079
aF242.58048221793834
atp935
Rp936
sba(iframe
frame
p937
(dp938
g3
F58.0
sg4
I186
sg5
g6
(g7
g8
(lp939
F291.6873319045411
aF243.42853031409476
atp940
Rp941
sba(iframe
frame
p942
(dp943
g3
F59.0
sg4
I187
sg5
g6
(g7
g8
(lp944
F292.2023699794512
aF244.28569761479687
atp945
Rp946
sba(iframe
frame
p947
(dp948
g3
F58.0
sg4
I188
sg5
g6
(g7
g8
(lp949
F292.7322892436844
aF245.1337457109533
atp950
Rp951
sba(iframe
frame
p952
(dp953
g3
F59.0
sg4
I189
sg5
g6
(g7
g8
(lp954
F293.2473273185945
aF245.9909130116554
atp955
Rp956
sba(iframe
frame
p957
(dp958
g3
F58.0
sg4
I190
sg5
g6
(g7
g8
(lp959
F293.77724658282773
aF246.83896110781183
atp960
Rp961
sba(iframe
frame
p962
(dp963
g3
F59.0
sg4
I191
sg5
g6
(g7
g8
(lp964
F294.2922846577378
aF247.69612840851394
atp965
Rp966
sba(iframe
frame
p967
(dp968
g3
F58.0
sg4
I192
sg5
g6
(g7
g8
(lp969
F294.82220392197104
aF248.54417650467036
atp970
Rp971
sba(iframe
frame
p972
(dp973
g3
F59.0
sg4
I193
sg5
g6
(g7
g8
(lp974
F295.3372419968811
aF249.40134380537248
atp975
Rp976
sba(iframe
frame
p977
(dp978
g3
F58.0
sg4
I194
sg5
g6
(g7
g8
(lp979
F295.86716126111435
aF250.2493919015289
atp980
Rp981
sba(iframe
frame
p982
(dp983
g3
F59.0
sg4
I195
sg5
g6
(g7
g8
(lp984
F296.3821993360244
aF251.106559202231
atp985
Rp986
sba(iframe
frame
p987
(dp988
g3
F58.0
sg4
I196
sg5
g6
(g7
g8
(lp989
F296.91211860025766
aF251.95460729838743
atp990
Rp991
sba(iframe
frame
p992
(dp993
g3
F57.0
sg4
I197
sg5
g6
(g7
g8
(lp994
F297.4567576352727
aF252.79327786633286
atp995
Rp996
sba(iframe
frame
p997
(dp998
g3
F58.0
sg4
I198
sg5
g6
(g7
g8
(lp999
F297.98667689950594
aF253.64132596248928
atp1000
Rp1001
sba(iframe
frame
p1002
(dp1003
g3
F57.0
sg4
I199
sg5
g6
(g7
g8
(lp1004
F298.531315934521
aF254.4799965304347
atp1005
Rp1006
sba(iframe
frame
p1007
(dp1008
g3
F58.0
sg4
I200
sg5
g6
(g7
g8
(lp1009
F299.0612351987542
aF255.32804462659112
atp1010
Rp1011
sba(iframe
frame
p1012
(dp1013
g3
F57.0
sg4
I201
sg5
g6
(g7
g8
(lp1014
F299.60587423376927
aF256.16671519453655
atp1015
Rp1016
sba(iframe
frame
p1017
(dp1018
g3
F58.0
sg4
I202
sg5
g6
(g7
g8
(lp1019
F300.1357934980025
aF257.014763290693
atp1020
Rp1021
sba(iframe
frame
p1022
(dp1023
g3
F57.0
sg4
I203
sg5
g6
(g7
g8
(lp1024
F300.68043253301755
aF257.8534338586384
atp1025
Rp1026
sba(iframe
frame
p1027
(dp1028
g3
F58.0
sg4
I204
sg5
g6
(g7
g8
(lp1029
F301.2103517972508
aF258.7014819547949
atp1030
Rp1031
sba(iframe
frame
p1032
(dp1033
g3
F57.0
sg4
I205
sg5
g6
(g7
g8
(lp1034
F301.75499083226583
aF259.5401525227403
atp1035
Rp1036
sba(iframe
frame
p1037
(dp1038
g3
F58.0
sg4
I206
sg5
g6
(g7
g8
(lp1039
F302.28491009649906
aF260.38820061889675
atp1040
Rp1041
sba(iframe
frame
p1042
(dp1043
g3
F57.0
sg4
I207
sg5
g6
(g7
g8
(lp1044
F302.8295491315141
aF261.2268711868422
atp1045
Rp1046
sba(iframe
frame
p1047
(dp1048
g3
F58.0
sg4
I208
sg5
g6
(g7
g8
(lp1049
F303.35946839574734
aF262.0749192829986
atp1050
Rp1051
sba(iframe
frame
p1052
(dp1053
g3
F57.0
sg4
I209
sg5
g6
(g7
g8
(lp1054
F303.9041074307624
aF262.91358985094405
atp1055
Rp1056
sba(iframe
frame
p1057
(dp1058
g3
F56.0
sg4
I210
sg5
g6
(g7
g8
(lp1059
F304.46330033423317
aF263.7426274234991
atp1060
Rp1061
sba(iframe
frame
p1062
(dp1063
g3
F57.0
sg4
I211
sg5
g6
(g7
g8
(lp1064
F305.0079393692482
aF264.5812979914445
atp1065
Rp1066
sba(iframe
frame
p1067
(dp1068
g3
F56.0
sg4
I212
sg5
g6
(g7
g8
(lp1069
F305.567132272719
aF265.4103355639995
atp1070
Rp1071
sba(iframe
frame
p1072
(dp1073
g3
F57.0
sg4
I213
sg5
g6
(g7
g8
(lp1074
F306.11177130773405
aF266.24900613194495
atp1075
Rp1076
sba(iframe
frame
p1077
(dp1078
g3
F56.0
sg4
I214
sg5
g6
(g7
g8
(lp1079
F306.6709642112048
aF267.0780437045
atp1080
Rp1081
sba(iframe
frame
p1082
(dp1083
g3
F57.0
sg4
I215
sg5
g6
(g7
g8
(lp1084
F307.21560324621987
aF267.9167142724454
atp1085
Rp1086
sba(iframe
frame
p1087
(dp1088
g3
F56.0
sg4
I216
sg5
g6
(g7
g8
(lp1089
F307.77479614969064
aF268.7457518450004
atp1090
Rp1091
sba(iframe
frame
p1092
(dp1093
g3
F57.0
sg4
I217
sg5
g6
(g7
g8
(lp1094
F308.3194351847057
aF269.58442241294586
atp1095
Rp1096
sba(iframe
frame
p1097
(dp1098
g3
F56.0
sg4
I218
sg5
g6
(g7
g8
(lp1099
F308.87862808817647
aF270.4134599855009
atp1100
Rp1101
sba(iframe
frame
p1102
(dp1103
g3
F57.0
sg4
I219
sg5
g6
(g7
g8
(lp1104
F309.4232671231915
aF271.2521305534463
atp1105
Rp1106
sba(iframe
frame
p1107
(dp1108
g3
F56.0
sg4
I220
sg5
g6
(g7
g8
(lp1109
F309.9824600266623
aF272.08116812600133
atp1110
Rp1111
sba(iframe
frame
p1112
(dp1113
g3
F57.0
sg4
I221
sg5
g6
(g7
g8
(lp1114
F310.52709906167735
aF272.91983869394676
atp1115
Rp1116
sba(iframe
frame
p1117
(dp1118
g3
F56.0
sg4
I222
sg5
g6
(g7
g8
(lp1119
F311.0862919651481
aF273.7488762665018
atp1120
Rp1121
sba(iframe
frame
p1122
(dp1123
g3
F57.0
sg4
I223
sg5
g6
(g7
g8
(lp1124
F311.6309310001632
aF274.5875468344472
atp1125
Rp1126
sba(iframe
frame
p1127
(dp1128
g3
F56.0
sg4
I224
sg5
g6
(g7
g8
(lp1129
F312.19012390363395
aF275.41658440700223
atp1130
Rp1131
sba(iframe
frame
p1132
(dp1133
g3
F55.0
sg4
I225
sg5
g6
(g7
g8
(lp1134
F312.763700339985
aF276.23573645129125
atp1135
Rp1136
sba(iframe
frame
p1137
(dp1138
g3
F56.0
sg4
I226
sg5
g6
(g7
g8
(lp1139
F313.3228932434558
aF277.06477402384627
atp1140
Rp1141
sba(iframe
frame
p1142
(dp1143
g3
F55.0
sg4
I227
sg5
g6
(g7
g8
(lp1144
F313.89646967980684
aF277.8839260681353
atp1145
Rp1146
sba(iframe
frame
p1147
(dp1148
g3
F56.0
sg4
I228
sg5
g6
(g7
g8
(lp1149
F314.4556625832776
aF278.7129636406903
atp1150
Rp1151
sba(iframe
frame
p1152
(dp1153
g3
F55.0
sg4
I229
sg5
g6
(g7
g8
(lp1154
F315.0292390196287
aF279.5321156849793
atp1155
Rp1156
sba(iframe
frame
p1157
(dp1158
g3
F56.0
sg4
I230
sg5
g6
(g7
g8
(lp1159
F315.58843192309945
aF280.36115325753434
atp1160
Rp1161
sba(iframe
frame
p1162
(dp1163
g3
F55.0
sg4
I231
sg5
g6
(g7
g8
(lp1164
F316.1620083594505
aF281.18030530182335
atp1165
Rp1166
sba(iframe
frame
p1167
(dp1168
g3
F56.0
sg4
I232
sg5
g6
(g7
g8
(lp1169
F316.7212012629213
aF282.0093428743784
atp1170
Rp1171
sba(iframe
frame
p1172
(dp1173
g3
F55.0
sg4
I233
sg5
g6
(g7
g8
(lp1174
F317.29477769927234
aF282.8284949186674
atp1175
Rp1176
sba(iframe
frame
p1177
(dp1178
g3
F56.0
sg4
I234
sg5
g6
(g7
g8
(lp1179
F317.8539706027431
aF283.6575324912224
atp1180
Rp1181
sba(iframe
frame
p1182
(dp1183
g3
F55.0
sg4
I235
sg5
g6
(g7
g8
(lp1184
F318.4275470390942
aF284.4766845355114
atp1185
Rp1186
sba(iframe
frame
p1187
(dp1188
g3
F56.0
sg4
I236
sg5
g6
(g7
g8
(lp1189
F318.98673994256495
aF285.30572210806645
atp1190
Rp1191
sba(iframe
frame
p1192
(dp1193
g3
F55.0
sg4
I237
sg5
g6
(g7
g8
(lp1194
F319.560316378916
aF286.12487415235546
atp1195
Rp1196
sba(iframe
frame
p1197
(dp1198
g3
F56.0
sg4
I238
sg5
g6
(g7
g8
(lp1199
F320.1195092823868
aF286.9539117249105
atp1200
Rp1201
sba(iframe
frame
p1202
(dp1203
g3
F55.0
sg4
I239
sg5
g6
(g7
g8
(lp1204
F320.69308571873785
aF287.7730637691995
atp1205
Rp1206
sba(iframe
frame
p1207
(dp1208
g3
F56.0
sg4
I240
sg5
g6
(g7
g8
(lp1209
F321.2522786222086
aF288.6021013417545
atp1210
Rp1211
sba(iframe
frame
p1212
(dp1213
g3
F55.0
sg4
I241
sg5
g6
(g7
g8
(lp1214
F321.8258550585597
aF289.42125338604353
atp1215
Rp1216
sba(iframe
frame
p1217
(dp1218
g3
F56.0
sg4
I242
sg5
g6
(g7
g8
(lp1219
F322.38504796203046
aF290.25029095859855
atp1220
Rp1221
sba(iframe
frame
p1222
(dp1223
g3
F55.0
sg4
I243
sg5
g6
(g7
g8
(lp1224
F322.9586243983815
aF291.06944300288757
atp1225
Rp1226
sba(iframe
frame
p1227
(dp1228
g3
F54.0
sg4
I244
sg5
g6
(g7
g8
(lp1229
F323.546409650674
aF291.8784599972625
atp1230
Rp1231
sba(iframe
frame
p1232
(dp1233
g3
F55.0
sg4
I245
sg5
g6
(g7
g8
(lp1234
F324.11998608702504
aF292.6976120415515
atp1235
Rp1236
sba(iframe
frame
p1237
(dp1238
g3
F54.0
sg4
I246
sg5
g6
(g7
g8
(lp1239
F324.7077713393175
aF293.50662903592644
atp1240
Rp1241
sba(iframe
frame
p1242
(dp1243
g3
F55.0
sg4
I247
sg5
g6
(g7
g8
(lp1244
F325.28134777566856
aF294.32578108021545
atp1245
Rp1246
sba(iframe
frame
p1247
(dp1248
g3
F54.0
sg4
I248
sg5
g6
(g7
g8
(lp1249
F325.869133027961
aF295.1347980745904
atp1250
Rp1251
sba(iframe
frame
p1252
(dp1253
g3
F55.0
sg4
I249
sg5
g6
(g7
g8
(lp1254
F326.4427094643121
aF295.9539501188794
atp1255
Rp1256
sba(iframe
frame
p1257
(dp1258
g3
F54.0
sg4
I250
sg5
g6
(g7
g8
(lp1259
F327.03049471660455
aF296.7629671132543
atp1260
Rp1261
sba(iframe
frame
p1262
(dp1263
g3
F55.0
sg4
I251
sg5
g6
(g7
g8
(lp1264
F327.6040711529556
aF297.58211915754333
atp1265
Rp1266
sba(iframe
frame
p1267
(dp1268
g3
F54.0
sg4
I252
sg5
g6
(g7
g8
(lp1269
F328.1918564052481
aF298.39113615191826
atp1270
Rp1271
sba(iframe
frame
p1272
(dp1273
g3
F55.0
sg4
I253
sg5
g6
(g7
g8
(lp1274
F328.76543284159914
aF299.2102881962073
atp1275
Rp1276
sba(iframe
frame
p1277
(dp1278
g3
F54.0
sg4
I254
sg5
g6
(g7
g8
(lp1279
F329.3532180938916
aF300.0193051905822
atp1280
Rp1281
sba(iframe
frame
p1282
(dp1283
g3
F55.0
sg4
I255
sg5
g6
(g7
g8
(lp1284
F329.92679453024266
aF300.8384572348712
atp1285
Rp1286
sba(iframe
frame
p1287
(dp1288
g3
F54.0
sg4
I256
sg5
g6
(g7
g8
(lp1289
F330.5145797825351
aF301.64747422924614
atp1290
Rp1291
sba(iframe
frame
p1292
(dp1293
g3
F55.0
sg4
I257
sg5
g6
(g7
g8
(lp1294
F331.0881562188862
aF302.46662627353516
atp1295
Rp1296
sba(iframe
frame
p1297
(dp1298
g3
F54.0
sg4
I258
sg5
g6
(g7
g8
(lp1299
F331.67594147117865
aF303.2756432679101
atp1300
Rp1301
sba(iframe
frame
p1302
(dp1303
g3
F55.0
sg4
I259
sg5
g6
(g7
g8
(lp1304
F332.2495179075297
aF304.0947953121991
atp1305
Rp1306
sba(iframe
frame
p1307
(dp1308
g3
F54.0
sg4
I260
sg5
g6
(g7
g8
(lp1309
F332.83730315982217
aF304.903812306574
atp1310
Rp1311
sba(iframe
frame
p1312
(dp1313
g3
F55.0
sg4
I261
sg5
g6
(g7
g8
(lp1314
F333.41087959617323
aF305.72296435086304
atp1315
Rp1316
sba(iframe
frame
p1317
(dp1318
g3
F55.0
sg4
I262
sg5
g6
(g7
g8
(lp1319
F333.9844560325243
aF306.54211639515205
atp1320
Rp1321
sba(iframe
frame
p1322
(dp1323
g3
F54.0
sg4
I263
sg5
g6
(g7
g8
(lp1324
F334.57224128481676
aF307.351133389527
atp1325
Rp1326
sba(iframe
frame
p1327
(dp1328
g3
F55.0
sg4
I264
sg5
g6
(g7
g8
(lp1329
F335.1458177211678
aF308.170285433816
atp1330
Rp1331
sba(iframe
frame
p1332
(dp1333
g3
F54.0
sg4
I265
sg5
g6
(g7
g8
(lp1334
F335.7336029734603
aF308.9793024281909
atp1335
Rp1336
sba(iframe
frame
p1337
(dp1338
g3
F55.0
sg4
I266
sg5
g6
(g7
g8
(lp1339
F336.30717940981134
aF309.79845447247993
atp1340
Rp1341
sba(iframe
frame
p1342
(dp1343
g3
F54.0
sg4
I267
sg5
g6
(g7
g8
(lp1344
F336.8949646621038
aF310.60747146685486
atp1345
Rp1346
sba(iframe
frame
p1347
(dp1348
g3
F55.0
sg4
I268
sg5
g6
(g7
g8
(lp1349
F337.46854109845486
aF311.4266235111439
atp1350
Rp1351
sba(iframe
frame
p1352
(dp1353
g3
F54.0
sg4
I269
sg5
g6
(g7
g8
(lp1354
F338.0563263507473
aF312.2356405055188
atp1355
Rp1356
sba(iframe
frame
p1357
(dp1358
g3
F53.0
sg4
I270
sg5
g6
(g7
g8
(lp1359
F338.65814137389935
aF313.0342760155661
atp1360
Rp1361
sba(iframe
frame
p1362
(dp1363
g3
F54.0
sg4
I271
sg5
g6
(g7
g8
(lp1364
F339.2459266261918
aF313.843293009941
atp1365
Rp1366
sba(iframe
frame
p1367
(dp1368
g3
F53.0
sg4
I272
sg5
g6
(g7
g8
(lp1369
F339.84774164934385
aF314.6419285199883
atp1370
Rp1371
sba(iframe
frame
p1372
(dp1373
g3
F54.0
sg4
I273
sg5
g6
(g7
g8
(lp1374
F340.4355269016363
aF315.45094551436324
atp1375
Rp1376
sba(iframe
frame
p1377
(dp1378
g3
F53.0
sg4
I274
sg5
g6
(g7
g8
(lp1379
F341.03734192478834
aF316.24958102441053
atp1380
Rp1381
sba(iframe
frame
p1382
(dp1383
g3
F54.0
sg4
I275
sg5
g6
(g7
g8
(lp1384
F341.6251271770808
aF317.05859801878546
atp1385
Rp1386
sba(iframe
frame
p1387
(dp1388
g3
F53.0
sg4
I276
sg5
g6
(g7
g8
(lp1389
F342.2269422002328
aF317.85723352883275
atp1390
Rp1391
sba(iframe
frame
p1392
(dp1393
g3
F54.0
sg4
I277
sg5
g6
(g7
g8
(lp1394
F342.8147274525253
aF318.6662505232077
atp1395
Rp1396
sba(iframe
frame
p1397
(dp1398
g3
F53.0
sg4
I278
sg5
g6
(g7
g8
(lp1399
F343.4165424756773
aF319.46488603325497
atp1400
Rp1401
sba(iframe
frame
p1402
(dp1403
g3
F54.0
sg4
I279
sg5
g6
(g7
g8
(lp1404
F344.0043277279698
aF320.2739030276299
atp1405
Rp1406
sba(iframe
frame
p1407
(dp1408
g3
F53.0
sg4
I280
sg5
g6
(g7
g8
(lp1409
F344.6061427511218
aF321.0725385376772
atp1410
Rp1411
sba(iframe
frame
p1412
(dp1413
g3
F54.0
sg4
I281
sg5
g6
(g7
g8
(lp1414
F345.19392800341427
aF321.8815555320521
atp1415
Rp1416
sba(iframe
frame
p1417
(dp1418
g3
F53.0
sg4
I282
sg5
g6
(g7
g8
(lp1419
F345.7957430265663
aF322.6801910420994
atp1420
Rp1421
sba(iframe
frame
p1422
(dp1423
g3
F54.0
sg4
I283
sg5
g6
(g7
g8
(lp1424
F346.38352827885876
aF323.48920803647434
atp1425
Rp1426
sba(iframe
frame
p1427
(dp1428
g3
F53.0
sg4
I284
sg5
g6
(g7
g8
(lp1429
F346.9853433020108
aF324.28784354652163
atp1430
Rp1431
sba(iframe
frame
p1432
(dp1433
g3
F54.0
sg4
I285
sg5
g6
(g7
g8
(lp1434
F347.57312855430325
aF325.09686054089656
atp1435
Rp1436
sba(iframe
frame
p1437
(dp1438
g3
F53.0
sg4
I286
sg5
g6
(g7
g8
(lp1439
F348.1749435774553
aF325.89549605094385
atp1440
Rp1441
sba(iframe
frame
p1442
(dp1443
g3
F54.0
sg4
I287
sg5
g6
(g7
g8
(lp1444
F348.76272882974774
aF326.7045130453188
atp1445
Rp1446
sba(iframe
frame
p1447
(dp1448
g3
F53.0
sg4
I288
sg5
g6
(g7
g8
(lp1449
F349.36454385289977
aF327.50314855536607
atp1450
Rp1451
sba(iframe
frame
p1452
(dp1453
g3
F54.0
sg4
I289
sg5
g6
(g7
g8
(lp1454
F349.95232910519223
aF328.312165549741
atp1455
Rp1456
sba(iframe
frame
p1457
(dp1458
g3
F53.0
sg4
I290
sg5
g6
(g7
g8
(lp1459
F350.55414412834426
aF329.1108010597883
atp1460
Rp1461
sba(iframe
frame
p1462
(dp1463
g3
F54.0
sg4
I291
sg5
g6
(g7
g8
(lp1464
F351.1419293806367
aF329.9198180541632
atp1465
Rp1466
sba(iframe
frame
p1467
(dp1468
g3
F53.0
sg4
I292
sg5
g6
(g7
g8
(lp1469
F351.74374440378875
aF330.7184535642105
atp1470
Rp1471
sba(iframe
frame
p1472
(dp1473
g3
F54.0
sg4
I293
sg5
g6
(g7
g8
(lp1474
F352.3315296560812
aF331.52747055858543
atp1475
Rp1476
sba(iframe
frame
p1477
(dp1478
g3
F53.0
sg4
I294
sg5
g6
(g7
g8
(lp1479
F352.93334467923324
aF332.3261060686327
atp1480
Rp1481
sba(iframe
frame
p1482
(dp1483
g3
F54.0
sg4
I295
sg5
g6
(g7
g8
(lp1484
F353.5211299315257
aF333.13512306300765
atp1485
Rp1486
sba(iframe
frame
p1487
(dp1488
g3
F53.0
sg4
I296
sg5
g6
(g7
g8
(lp1489
F354.12294495467773
aF333.93375857305494
atp1490
Rp1491
sba(iframe
frame
p1492
(dp1493
g3
F54.0
sg4
I297
sg5
g6
(g7
g8
(lp1494
F354.7107302069702
aF334.7427755674299
atp1495
Rp1496
sba(iframe
frame
p1497
(dp1498
g3
F53.0
sg4
I298
sg5
g6
(g7
g8
(lp1499
F355.3125452301222
aF335.54141107747716
atp1500
Rp1501
sba(iframe
frame
p1502
(dp1503
g3
F54.0
sg4
I299
sg5
g6
(g7
g8
(lp1504
F355.9003304824147
aF336.3504280718521
atp1505
Rp1506
sba(iframe
frame
p1507
(dp1508
g3
F53.0
sg4
I300
sg5
g6
(g7
g8
(lp1509
F356.5021455055667
aF337.1490635818994
atp1510
Rp1511
sba(iframe
frame
p1512
(dp1513
g3
F54.0
sg4
I301
sg5
g6
(g7
g8
(lp1514
F357.0899307578592
aF337.9580805762743
atp1515
Rp1516
sba(iframe
frame
p1517
(dp1518
g3
F53.0
sg4
I302
sg5
g6
(g7
g8
(lp1519
F357.6917457810112
aF338.7567160863216
atp1520
Rp1521
sba(iframe
frame
p1522
(dp1523
g3
F54.0
sg4
I303
sg5
g6
(g7
g8
(lp1524
F358.27953103330367
aF339.56573308069653
atp1525
Rp1526
sba(iframe
frame
p1527
(dp1528
g3
F53.0
sg4
I304
sg5
g6
(g7
g8
(lp1529
F358.8813460564557
aF340.3643685907438
atp1530
Rp1531
sba(iframe
frame
p1532
(dp1533
g3
F54.0
sg4
I305
sg5
g6
(g7
g8
(lp1534
F359.46913130874816
aF341.17338558511875
atp1535
Rp1536
sba(iframe
frame
p1537
(dp1538
g3
F53.0
sg4
I306
sg5
g6
(g7
g8
(lp1539
F360.0709463319002
aF341.97202109516604
atp1540
Rp1541
sba(iframe
frame
p1542
(dp1543
g3
F54.0
sg4
I307
sg5
g6
(g7
g8
(lp1544
F360.65873158419265
aF342.78103808954097
atp1545
Rp1546
sba(iframe
frame
p1547
(dp1548
g3
F53.0
sg4
I308
sg5
g6
(g7
g8
(lp1549
F361.2605466073447
aF343.57967359958826
atp1550
Rp1551
sba(iframe
frame
p1552
(dp1553
g3
F52.0
sg4
I309
sg5
g6
(g7
g8
(lp1554
F361.87620808267036
aF344.367684353195
atp1555
Rp1556
sba(iframe
frame
p1557
(dp1558
g3
F53.0
sg4
I310
sg5
g6
(g7
g8
(lp1559
F362.4780231058224
aF345.1663198632423
atp1560
Rp1561
sba(iframe
frame
p1562
(dp1563
g3
F52.0
sg4
I311
sg5
g6
(g7
g8
(lp1564
F363.09368458114807
aF345.954330616849
atp1565
Rp1566
sba(iframe
frame
p1567
(dp1568
g3
F53.0
sg4
I312
sg5
g6
(g7
g8
(lp1569
F363.6954996043001
aF346.7529661268963
atp1570
Rp1571
sba(iframe
frame
p1572
(dp1573
g3
F52.0
sg4
I313
sg5
g6
(g7
g8
(lp1574
F364.3111610796258
aF347.540976880503
atp1575
Rp1576
sba(iframe
frame
p1577
(dp1578
g3
F53.0
sg4
I314
sg5
g6
(g7
g8
(lp1579
F364.9129761027778
aF348.3396123905503
atp1580
Rp1581
sba(iframe
frame
p1582
(dp1583
g3
F52.0
sg4
I315
sg5
g6
(g7
g8
(lp1584
F365.5286375781035
aF349.12762314415704
atp1585
Rp1586
sba(iframe
frame
p1587
(dp1588
g3
F53.0
sg4
I316
sg5
g6
(g7
g8
(lp1589
F366.1304526012555
aF349.92625865420433
atp1590
Rp1591
sba(iframe
frame
p1592
(dp1593
g3
F52.0
sg4
I317
sg5
g6
(g7
g8
(lp1594
F366.7461140765812
aF350.71426940781106
atp1595
Rp1596
sba(iframe
frame
p1597
(dp1598
g3
F53.0
sg4
I318
sg5
g6
(g7
g8
(lp1599
F367.3479290997332
aF351.51290491785835
atp1600
Rp1601
sba(iframe
frame
p1602
(dp1603
g3
F52.0
sg4
I319
sg5
g6
(g7
g8
(lp1604
F367.9635905750589
aF352.3009156714651
atp1605
Rp1606
sba(iframe
frame
p1607
(dp1608
g3
F53.0
sg4
I320
sg5
g6
(g7
g8
(lp1609
F368.56540559821093
aF353.09955118151237
atp1610
Rp1611
sba(iframe
frame
p1612
(dp1613
g3
F52.0
sg4
I321
sg5
g6
(g7
g8
(lp1614
F369.1810670735366
aF353.8875619351191
atp1615
Rp1616
sba(iframe
frame
p1617
(dp1618
g3
F53.0
sg4
I322
sg5
g6
(g7
g8
(lp1619
F369.78288209668864
aF354.6861974451664
atp1620
Rp1621
sba(iframe
frame
p1622
(dp1623
g3
F52.0
sg4
I323
sg5
g6
(g7
g8
(lp1624
F370.3985435720143
aF355.4742081987731
atp1625
Rp1626
sba(iframe
frame
p1627
(dp1628
g3
F53.0
sg4
I324
sg5
g6
(g7
g8
(lp1629
F371.00035859516635
aF356.2728437088204
atp1630
Rp1631
sba(iframe
frame
p1632
(dp1633
g3
F52.0
sg4
I325
sg5
g6
(g7
g8
(lp1634
F371.616020070492
aF357.06085446242713
atp1635
Rp1636
sba(iframe
frame
p1637
(dp1638
g3
F53.0
sg4
I326
sg5
g6
(g7
g8
(lp1639
F372.21783509364406
aF357.8594899724744
atp1640
Rp1641
sba(iframe
frame
p1642
(dp1643
g3
F52.0
sg4
I327
sg5
g6
(g7
g8
(lp1644
F372.83349656896974
aF358.64750072608115
atp1645
Rp1646
sba(iframe
frame
p1647
(dp1648
g3
F53.0
sg4
I328
sg5
g6
(g7
g8
(lp1649
F373.43531159212176
aF359.44613623612844
atp1650
Rp1651
sba(iframe
frame
p1652
(dp1653
g3
F52.0
sg4
I329
sg5
g6
(g7
g8
(lp1654
F374.05097306744744
aF360.23414698973517
atp1655
Rp1656
sba(iframe
frame
p1657
(dp1658
g3
F53.0
sg4
I330
sg5
g6
(g7
g8
(lp1659
F374.6527880905995
aF361.03278249978246
atp1660
Rp1661
sba(iframe
frame
p1662
(dp1663
g3
F52.0
sg4
I331
sg5
g6
(g7
g8
(lp1664
F375.26844956592515
aF361.8207932533892
atp1665
Rp1666
sba(iframe
frame
p1667
(dp1668
g3
F53.0
sg4
I332
sg5
g6
(g7
g8
(lp1669
F375.8702645890772
aF362.6194287634365
atp1670
Rp1671
sba(iframe
frame
p1672
(dp1673
g3
F52.0
sg4
I333
sg5
g6
(g7
g8
(lp1674
F376.48592606440286
aF363.4074395170432
atp1675
Rp1676
sba(iframe
frame
p1677
(dp1678
g3
F53.0
sg4
I334
sg5
g6
(g7
g8
(lp1679
F377.0877410875549
aF364.2060750270905
atp1680
Rp1681
sba(iframe
frame
p1682
(dp1683
g3
F52.0
sg4
I335
sg5
g6
(g7
g8
(lp1684
F377.70340256288057
aF364.9940857806972
atp1685
Rp1686
sba(iframe
frame
p1687
(dp1688
g3
F53.0
sg4
I336
sg5
g6
(g7
g8
(lp1689
F378.3052175860326
aF365.7927212907445
atp1690
Rp1691
sba(iframe
frame
p1692
(dp1693
g3
F52.0
sg4
I337
sg5
g6
(g7
g8
(lp1694
F378.9208790613583
aF366.58073204435124
atp1695
Rp1696
sba(iframe
frame
p1697
(dp1698
g3
F53.0
sg4
I338
sg5
g6
(g7
g8
(lp1699
F379.5226940845103
aF367.3793675543985
atp1700
Rp1701
sba(iframe
frame
p1702
(dp1703
g3
F52.0
sg4
I339
sg5
g6
(g7
g8
(lp1704
F380.138355559836
aF368.16737830800525
atp1705
Rp1706
sba(iframe
frame
p1707
(dp1708
g3
F53.0
sg4
I340
sg5
g6
(g7
g8
(lp1709
F380.740170582988
aF368.96601381805255
atp1710
Rp1711
sba(iframe
frame
p1712
(dp1713
g3
F52.0
sg4
I341
sg5
g6
(g7
g8
(lp1714
F381.3558320583137
aF369.7540245716593
atp1715
Rp1716
sba(iframe
frame
p1717
(dp1718
g3
F53.0
sg4
I342
sg5
g6
(g7
g8
(lp1719
F381.9576470814657
aF370.55266008170656
atp1720
Rp1721
sba(iframe
frame
p1722
(dp1723
g3
F52.0
sg4
I343
sg5
g6
(g7
g8
(lp1724
F382.5733085567914
aF371.3406708353133
atp1725
Rp1726
sba(iframe
frame
p1727
(dp1728
g3
F53.0
sg4
I344
sg5
g6
(g7
g8
(lp1729
F383.17512357994343
aF372.1393063453606
atp1730
Rp1731
sba(iframe
frame
p1732
(dp1733
g3
F52.0
sg4
I345
sg5
g6
(g7
g8
(lp1734
F383.7907850552691
aF372.9273170989673
atp1735
Rp1736
sba(iframe
frame
p1737
(dp1738
g3
F53.0
sg4
I346
sg5
g6
(g7
g8
(lp1739
F384.39260007842114
aF373.7259526090146
atp1740
Rp1741
sba(iframe
frame
p1742
(dp1743
g3
F52.0
sg4
I347
sg5
g6
(g7
g8
(lp1744
F385.0082615537468
aF374.5139633626213
atp1745
Rp1746
sba(iframe
frame
p1747
(dp1748
g3
F53.0
sg4
I348
sg5
g6
(g7
g8
(lp1749
F385.61007657689885
aF375.3125988726686
atp1750
Rp1751
sba(iframe
frame
p1752
(dp1753
g3
F52.0
sg4
I349
sg5
g6
(g7
g8
(lp1754
F386.22573805222453
aF376.10060962627534
atp1755
Rp1756
sba(iframe
frame
p1757
(dp1758
g3
F53.0
sg4
I350
sg5
g6
(g7
g8
(lp1759
F386.82755307537656
aF376.89924513632263
atp1760
Rp1761
sba(iframe
frame
p1762
(dp1763
g3
F52.0
sg4
I351
sg5
g6
(g7
g8
(lp1764
F387.44321455070224
aF377.68725588992936
atp1765
Rp1766
sba(iframe
frame
p1767
(dp1768
g3
F53.0
sg4
I352
sg5
g6
(g7
g8
(lp1769
F388.04502957385426
aF378.48589139997665
atp1770
Rp1771
sba(iframe
frame
p1772
(dp1773
g3
F52.0
sg4
I353
sg5
g6
(g7
g8
(lp1774
F388.66069104917995
aF379.2739021535834
atp1775
Rp1776
sba(iframe
frame
p1777
(dp1778
g3
F53.0
sg4
I354
sg5
g6
(g7
g8
(lp1779
F389.262506072332
aF380.07253766363067
atp1780
Rp1781
sba(iframe
frame
p1782
(dp1783
g3
F52.0
sg4
I355
sg5
g6
(g7
g8
(lp1784
F389.87816754765765
aF380.8605484172374
atp1785
Rp1786
sba(iframe
frame
p1787
(dp1788
g3
F53.0
sg4
I356
sg5
g6
(g7
g8
(lp1789
F390.4799825708097
aF381.6591839272847
atp1790
Rp1791
sba(iframe
frame
p1792
(dp1793
g3
F52.0
sg4
I357
sg5
g6
(g7
g8
(lp1794
F391.09564404613536
aF382.4471946808914
atp1795
Rp1796
sba(iframe
frame
p1797
(dp1798
g3
F53.0
sg4
I358
sg5
g6
(g7
g8
(lp1799
F391.6974590692874
aF383.2458301909387
atp1800
Rp1801
sba(iframe
frame
p1802
(dp1803
g3
F52.0
sg4
I359
sg5
g6
(g7
g8
(lp1804
F392.31312054461307
aF384.03384094454543
atp1805
Rp1806
sba(iframe
frame
p1807
(dp1808
g3
F53.0
sg4
I360
sg5
g6
(g7
g8
(lp1809
F392.9149355677651
aF384.8324764545927
atp1810
Rp1811
sba(iframe
frame
p1812
(dp1813
g3
F52.0
sg4
I361
sg5
g6
(g7
g8
(lp1814
F393.5305970430908
aF385.62048720819945
atp1815
Rp1816
sba(iframe
frame
p1817
(dp1818
g3
F53.0
sg4
I362
sg5
g6
(g7
g8
(lp1819
F394.1324120662428
aF386.41912271824674
atp1820
Rp1821
sba(iframe
frame
p1822
(dp1823
g3
F52.0
sg4
I363
sg5
g6
(g7
g8
(lp1824
F394.7480735415685
aF387.20713347185347
atp1825
Rp1826
sba(iframe
frame
p1827
(dp1828
g3
F53.0
sg4
I364
sg5
g6
(g7
g8
(lp1829
F395.3498885647205
aF388.00576898190076
atp1830
Rp1831
sba(iframe
frame
p1832
(dp1833
g3
F52.0
sg4
I365
sg5
g6
(g7
g8
(lp1834
F395.9655500400462
aF388.7937797355075
atp1835
Rp1836
sba(iframe
frame
p1837
(dp1838
g3
F53.0
sg4
I366
sg5
g6
(g7
g8
(lp1839
F396.5673650631982
aF389.5924152455548
atp1840
Rp1841
sba(iframe
frame
p1842
(dp1843
g3
F52.0
sg4
I367
sg5
g6
(g7
g8
(lp1844
F397.1830265385239
aF390.3804259991615
atp1845
Rp1846
sba(iframe
frame
p1847
(dp1848
g3
F53.0
sg4
I368
sg5
g6
(g7
g8
(lp1849
F397.78484156167593
aF391.1790615092088
atp1850
Rp1851
sba(iframe
frame
p1852
(dp1853
g3
F52.0
sg4
I369
sg5
g6
(g7
g8
(lp1854
F398.4005030370016
aF391.9670722628155
atp1855
Rp1856
sba(iframe
frame
p1857
(dp1858
g3
F53.0
sg4
I370
sg5
g6
(g7
g8
(lp1859
F399.00231806015364
aF392.7657077728628
atp1860
Rp1861
sba(iframe
frame
p1862
(dp1863
g3
F52.0
sg4
I371
sg5
g6
(g7
g8
(lp1864
F399.6179795354793
aF393.55371852646954
atp1865
Rp1866
sba(iframe
frame
p1867
(dp1868
g3
F53.0
sg4
I372
sg5
g6
(g7
g8
(lp1869
F400.21979455863135
aF394.35235403651683
atp1870
Rp1871
sba(iframe
frame
p1872
(dp1873
g3
F52.0
sg4
I373
sg5
g6
(g7
g8
(lp1874
F400.83545603395703
aF395.14036479012356
atp1875
Rp1876
sba(iframe
frame
p1877
(dp1878
g3
F53.0
sg4
I374
sg5
g6
(g7
g8
(lp1879
F401.43727105710906
aF395.93900030017085
atp1880
Rp1881
sba(iframe
frame
p1882
(dp1883
g3
F52.0
sg4
I375
sg5
g6
(g7
g8
(lp1884
F402.05293253243474
aF396.7270110537776
atp1885
Rp1886
sba(iframe
frame
p1887
(dp1888
g3
F53.0
sg4
I376
sg5
g6
(g7
g8
(lp1889
F402.65474755558677
aF397.52564656382486
atp1890
Rp1891
sba(iframe
frame
p1892
(dp1893
g3
F52.0
sg4
I377
sg5
g6
(g7
g8
(lp1894
F403.27040903091245
aF398.3136573174316
atp1895
Rp1896
sba(iframe
frame
p1897
(dp1898
g3
F53.0
sg4
I378
sg5
g6
(g7
g8
(lp1899
F403.8722240540645
aF399.1122928274789
atp1900
Rp1901
sba(iframe
frame
p1902
(dp1903
g3
F52.0
sg4
I379
sg5
g6
(g7
g8
(lp1904
F404.48788552939016
aF399.9003035810856
atp1905
Rp1906
sba(iframe
frame
p1907
(dp1908
g3
F53.0
sg4
I380
sg5
g6
(g7
g8
(lp1909
F405.0897005525422
aF400.6989390911329
atp1910
Rp1911
sba(iframe
frame
p1912
(dp1913
g3
F52.0
sg4
I381
sg5
g6
(g7
g8
(lp1914
F405.70536202786786
aF401.4869498447396
atp1915
Rp1916
sba(iframe
frame
p1917
(dp1918
g3
F53.0
sg4
I382
sg5
g6
(g7
g8
(lp1919
F406.3071770510199
aF402.2855853547869
atp1920
Rp1921
sba(iframe
frame
p1922
(dp1923
g3
F52.0
sg4
I383
sg5
g6
(g7
g8
(lp1924
F406.9228385263456
aF403.07359610839364
atp1925
Rp1926
sba(iframe
frame
p1927
(dp1928
g3
F51.0
sg4
I384
sg5
g6
(g7
g8
(lp1929
F407.5521589173954
aF403.85074206985064
atp1930
Rp1931
sba(iframe
frame
p1932
(dp1933
g3
F52.0
sg4
I385
sg5
g6
(g7
g8
(lp1934
F408.16782039272107
aF404.63875282345737
atp1935
Rp1936
sba(iframe
frame
p1937
(dp1938
g3
F51.0
sg4
I386
sg5
g6
(g7
g8
(lp1939
F408.7971407837709
aF405.41589878491436
atp1940
Rp1941
sba(iframe
frame
p1942
(dp1943
g3
F52.0
sg4
I387
sg5
g6
(g7
g8
(lp1944
F409.41280225909657
aF406.2039095385211
atp1945
Rp1946
sba(iframe
frame
p1947
(dp1948
g3
F51.0
sg4
I388
sg5
g6
(g7
g8
(lp1949
F410.0421226501464
aF406.9810554999781
atp1950
Rp1951
sba(iframe
frame
p1952
(dp1953
g3
F52.0
sg4
I389
sg5
g6
(g7
g8
(lp1954
F410.65778412547206
aF407.7690662535848
atp1955
Rp1956
sba(iframe
frame
p1957
(dp1958
g3
F51.0
sg4
I390
sg5
g6
(g7
g8
(lp1959
F411.2871045165219
aF408.5462122150418
atp1960
Rp1961
sba(iframe
frame
p1962
(dp1963
g3
F52.0
sg4
I391
sg5
g6
(g7
g8
(lp1964
F411.90276599184756
aF409.33422296864853
atp1965
Rp1966
sba(iframe
frame
p1967
(dp1968
g3
F51.0
sg4
I392
sg5
g6
(g7
g8
(lp1969
F412.5320863828974
aF410.1113689301055
atp1970
Rp1971
sba(iframe
frame
p1972
(dp1973
g3
F52.0
sg4
I393
sg5
g6
(g7
g8
(lp1974
F413.14774785822306
aF410.89937968371225
atp1975
Rp1976
sba(iframe
frame
p1977
(dp1978
g3
F51.0
sg4
I394
sg5
g6
(g7
g8
(lp1979
F413.7770682492729
aF411.67652564516925
atp1980
Rp1981
sba(iframe
frame
p1982
(dp1983
g3
F52.0
sg4
I395
sg5
g6
(g7
g8
(lp1984
F414.39272972459855
aF412.464536398776
atp1985
Rp1986
sba(iframe
frame
p1987
(dp1988
g3
F51.0
sg4
I396
sg5
g6
(g7
g8
(lp1989
F415.02205011564837
aF413.24168236023297
atp1990
Rp1991
sba(iframe
frame
p1992
(dp1993
g3
F52.0
sg4
I397
sg5
g6
(g7
g8
(lp1994
F415.63771159097405
aF414.0296931138397
atp1995
Rp1996
sba(iframe
frame
p1997
(dp1998
g3
F51.0
sg4
I398
sg5
g6
(g7
g8
(lp1999
F416.26703198202387
aF414.8068390752967
atp2000
Rp2001
sba(iframe
frame
p2002
(dp2003
g3
F52.0
sg4
I399
sg5
g6
(g7
g8
(lp2004
F416.88269345734955
aF415.5948498289034
atp2005
Rp2006
sba(iframe
frame
p2007
(dp2008
g3
F51.0
sg4
I400
sg5
g6
(g7
g8
(lp2009
F417.51201384839936
aF416.3719957903604
atp2010
Rp2011
sba(iframe
frame
p2012
(dp2013
g3
F52.0
sg4
I401
sg5
g6
(g7
g8
(lp2014
F418.12767532372504
aF417.16000654396714
atp2015
Rp2016
sba(iframe
frame
p2017
(dp2018
g3
F51.0
sg4
I402
sg5
g6
(g7
g8
(lp2019
F418.75699571477486
aF417.93715250542414
atp2020
Rp2021
sba(iframe
frame
p2022
(dp2023
g3
F52.0
sg4
I403
sg5
g6
(g7
g8
(lp2024
F419.37265719010054
aF418.72516325903086
atp2025
Rp2026
sba(iframe
frame
p2027
(dp2028
g3
F51.0
sg4
I404
sg5
g6
(g7
g8
(lp2029
F420.00197758115036
aF419.50230922048786
atp2030
Rp2031
sba(iframe
frame
p2032
(dp2033
g3
F52.0
sg4
I405
sg5
g6
(g7
g8
(lp2034
F420.61763905647604
aF420.2903199740946
atp2035
Rp2036
sba(iframe
frame
p2037
(dp2038
g3
F51.0
sg4
I406
sg5
g6
(g7
g8
(lp2039
F421.24695944752585
aF421.0674659355516
atp2040
Rp2041
sba(iframe
frame
p2042
(dp2043
g3
F52.0
sg4
I407
sg5
g6
(g7
g8
(lp2044
F421.86262092285153
aF421.8554766891583
atp2045
Rp2046
sba(iframe
frame
p2047
(dp2048
g3
F51.0
sg4
I408
sg5
g6
(g7
g8
(lp2049
F422.49194131390135
aF422.6326226506153
atp2050
Rp2051
sba(iframe
frame
p2052
(dp2053
g3
F52.0
sg4
I409
sg5
g6
(g7
g8
(lp2054
F423.10760278922703
aF423.42063340422203
atp2055
Rp2056
sba(iframe
frame
p2057
(dp2058
g3
F51.0
sg4
I410
sg5
g6
(g7
g8
(lp2059
F423.73692318027685
aF424.197779365679
atp2060
Rp2061
sba(iframe
frame
p2062
(dp2063
g3
F52.0
sg4
I411
sg5
g6
(g7
g8
(lp2064
F424.3525846556025
aF424.98579011928575
atp2065
Rp2066
sba(iframe
frame
p2067
(dp2068
g3
F51.0
sg4
I412
sg5
g6
(g7
g8
(lp2069
F424.98190504665234
aF425.76293608074275
atp2070
Rp2071
sba(iframe
frame
p2072
(dp2073
g3
F52.0
sg4
I413
sg5
g6
(g7
g8
(lp2074
F425.597566521978
aF426.5509468343495
atp2075
Rp2076
sba(iframe
frame
p2077
(dp2078
g3
F51.0
sg4
I414
sg5
g6
(g7
g8
(lp2079
F426.22688691302784
aF427.32809279580647
atp2080
Rp2081
sba(iframe
frame
p2082
(dp2083
g3
F52.0
sg4
I415
sg5
g6
(g7
g8
(lp2084
F426.8425483883535
aF428.1161035494132
atp2085
Rp2086
sba(iframe
frame
p2087
(dp2088
g3
F51.0
sg4
I416
sg5
g6
(g7
g8
(lp2089
F427.47186877940334
aF428.8932495108702
atp2090
Rp2091
sba(iframe
frame
p2092
(dp2093
g3
F52.0
sg4
I417
sg5
g6
(g7
g8
(lp2094
F428.087530254729
aF429.6812602644769
atp2095
Rp2096
sba(iframe
frame
p2097
(dp2098
g3
F51.0
sg4
I418
sg5
g6
(g7
g8
(lp2099
F428.71685064577883
aF430.4584062259339
atp2100
Rp2101
sba(iframe
frame
p2102
(dp2103
g3
F52.0
sg4
I419
sg5
g6
(g7
g8
(lp2104
F429.3325121211045
aF431.24641697954064
atp2105
Rp2106
sba(iframe
frame
p2107
(dp2108
g3
F51.0
sg4
I420
sg5
g6
(g7
g8
(lp2109
F429.96183251215433
aF432.02356294099764
atp2110
Rp2111
sba(iframe
frame
p2112
(dp2113
g3
F52.0
sg4
I421
sg5
g6
(g7
g8
(lp2114
F430.57749398748
aF432.81157369460436
atp2115
Rp2116
sba(iframe
frame
p2117
(dp2118
g3
F51.0
sg4
I422
sg5
g6
(g7
g8
(lp2119
F431.2068143785298
aF433.58871965606136
atp2120
Rp2121
sba(iframe
frame
p2122
(dp2123
g3
F52.0
sg4
I423
sg5
g6
(g7
g8
(lp2124
F431.8224758538555
aF434.3767304096681
atp2125
Rp2126
sba(iframe
frame
p2127
(dp2128
g3
F51.0
sg4
I424
sg5
g6
(g7
g8
(lp2129
F432.4517962449053
aF435.1538763711251
atp2130
Rp2131
sba(iframe
frame
p2132
(dp2133
g3
F52.0
sg4
I425
sg5
g6
(g7
g8
(lp2134
F433.067457720231
aF435.9418871247318
atp2135
Rp2136
sba(iframe
frame
p2137
(dp2138
g3
F51.0
sg4
I426
sg5
g6
(g7
g8
(lp2139
F433.6967781112808
aF436.7190330861888
atp2140
Rp2141
sba(iframe
frame
p2142
(dp2143
g3
F52.0
sg4
I427
sg5
g6
(g7
g8
(lp2144
F434.3124395866065
aF437.50704383979553
atp2145
Rp2146
sba(iframe
frame
p2147
(dp2148
g3
F51.0
sg4
I428
sg5
g6
(g7
g8
(lp2149
F434.9417599776563
aF438.2841898012525
atp2150
Rp2151
sba(iframe
frame
p2152
(dp2153
g3
F52.0
sg4
I429
sg5
g6
(g7
g8
(lp2154
F435.557421452982
aF439.07220055485925
atp2155
Rp2156
sba(iframe
frame
p2157
(dp2158
g3
F51.0
sg4
I430
sg5
g6
(g7
g8
(lp2159
F436.1867418440318
aF439.84934651631625
atp2160
Rp2161
sba(iframe
frame
p2162
(dp2163
g3
F52.0
sg4
I431
sg5
g6
(g7
g8
(lp2164
F436.8024033193575
aF440.637357269923
atp2165
Rp2166
sba(iframe
frame
p2167
(dp2168
g3
F51.0
sg4
I432
sg5
g6
(g7
g8
(lp2169
F437.4317237104073
aF441.41450323137997
atp2170
Rp2171
sba(iframe
frame
p2172
(dp2173
g3
F52.0
sg4
I433
sg5
g6
(g7
g8
(lp2174
F438.047385185733
aF442.2025139849867
atp2175
Rp2176
sba(iframe
frame
p2177
(dp2178
g3
F51.0
sg4
I434
sg5
g6
(g7
g8
(lp2179
F438.6767055767828
aF442.9796599464437
atp2180
Rp2181
sba(iframe
frame
p2182
(dp2183
g3
F52.0
sg4
I435
sg5
g6
(g7
g8
(lp2184
F439.2923670521085
aF443.7676707000504
atp2185
Rp2186
sba(iframe
frame
p2187
(dp2188
g3
F51.0
sg4
I436
sg5
g6
(g7
g8
(lp2189
F439.9216874431583
aF444.5448166615074
atp2190
Rp2191
sba(iframe
frame
p2192
(dp2193
g3
F52.0
sg4
I437
sg5
g6
(g7
g8
(lp2194
F440.537348918484
aF445.33282741511414
atp2195
Rp2196
sba(iframe
frame
p2197
(dp2198
g3
F51.0
sg4
I438
sg5
g6
(g7
g8
(lp2199
F441.1666693095338
aF446.10997337657113
atp2200
Rp2201
sba(iframe
frame
p2202
(dp2203
g3
F52.0
sg4
I439
sg5
g6
(g7
g8
(lp2204
F441.7823307848595
aF446.89798413017786
atp2205
Rp2206
sba(iframe
frame
p2207
(dp2208
g3
F51.0
sg4
I440
sg5
g6
(g7
g8
(lp2209
F442.4116511759093
aF447.67513009163486
atp2210
Rp2211
sba(iframe
frame
p2212
(dp2213
g3
F52.0
sg4
I441
sg5
g6
(g7
g8
(lp2214
F443.027312651235
aF448.4631408452416
atp2215
Rp2216
sba(iframe
frame
p2217
(dp2218
g3
F51.0
sg4
I442
sg5
g6
(g7
g8
(lp2219
F443.6566330422848
aF449.2402868066986
atp2220
Rp2221
sba(iframe
frame
p2222
(dp2223
g3
F52.0
sg4
I443
sg5
g6
(g7
g8
(lp2224
F444.2722945176105
aF450.0282975603053
atp2225
Rp2226
sba(iframe
frame
p2227
(dp2228
g3
F51.0
sg4
I444
sg5
g6
(g7
g8
(lp2229
F444.9016149086603
aF450.8054435217623
atp2230
Rp2231
sba(iframe
frame
p2232
(dp2233
g3
F52.0
sg4
I445
sg5
g6
(g7
g8
(lp2234
F445.517276383986
aF451.593454275369
atp2235
Rp2236
sba(iframe
frame
p2237
(dp2238
g3
F51.0
sg4
I446
sg5
g6
(g7
g8
(lp2239
F446.1465967750358
aF452.370600236826
atp2240
Rp2241
sba(iframe
frame
p2242
(dp2243
g3
F52.0
sg4
I447
sg5
g6
(g7
g8
(lp2244
F446.76225825036147
aF453.15861099043275
atp2245
Rp2246
sba(iframe
frame
p2247
(dp2248
g3
F51.0
sg4
I448
sg5
g6
(g7
g8
(lp2249
F447.3915786414113
aF453.93575695188974
atp2250
Rp2251
sba(iframe
frame
p2252
(dp2253
g3
F52.0
sg4
I449
sg5
g6
(g7
g8
(lp2254
F448.00724011673697
aF454.72376770549647
atp2255
Rp2256
sba(iframe
frame
p2257
(dp2258
g3
F51.0
sg4
I450
sg5
g6
(g7
g8
(lp2259
F448.6365605077868
aF455.50091366695347
atp2260
Rp2261
sba(iframe
frame
p2262
(dp2263
g3
F52.0
sg4
I451
sg5
g6
(g7
g8
(lp2264
F449.25222198311246
aF456.2889244205602
atp2265
Rp2266
sba(iframe
frame
p2267
(dp2268
g3
F51.0
sg4
I452
sg5
g6
(g7
g8
(lp2269
F449.8815423741623
aF457.0660703820172
atp2270
Rp2271
sba(iframe
frame
p2272
(dp2273
g3
F52.0
sg4
I453
sg5
g6
(g7
g8
(lp2274
F450.49720384948796
aF457.8540811356239
atp2275
Rp2276
sba(iframe
frame
p2277
(dp2278
g3
F51.0
sg4
I454
sg5
g6
(g7
g8
(lp2279
F451.1265242405378
aF458.6312270970809
atp2280
Rp2281
sba(iframe
frame
p2282
(dp2283
g3
F52.0
sg4
I455
sg5
g6
(g7
g8
(lp2284
F451.74218571586346
aF459.41923785068764
atp2285
Rp2286
sba(iframe
frame
p2287
(dp2288
g3
F51.0
sg4
I456
sg5
g6
(g7
g8
(lp2289
F452.3715061069133
aF460.19638381214463
atp2290
Rp2291
sba(iframe
frame
p2292
(dp2293
g3
F52.0
sg4
I457
sg5
g6
(g7
g8
(lp2294
F452.98716758223895
aF460.98439456575136
atp2295
Rp2296
sba(iframe
frame
p2297
(dp2298
g3
F51.0
sg4
I458
sg5
g6
(g7
g8
(lp2299
F453.61648797328877
aF461.76154052720835
atp2300
Rp2301
sba(iframe
frame
p2302
(dp2303
g3
F52.0
sg4
I459
sg5
g6
(g7
g8
(lp2304
F454.23214944861445
aF462.5495512808151
atp2305
Rp2306
sba(iframe
frame
p2307
(dp2308
g3
F51.0
sg4
I460
sg5
g6
(g7
g8
(lp2309
F454.86146983966427
aF463.3266972422721
atp2310
Rp2311
sba(iframe
frame
p2312
(dp2313
g3
F52.0
sg4
I461
sg5
g6
(g7
g8
(lp2314
F455.47713131498995
aF464.1147079958788
atp2315
Rp2316
sba(iframe
frame
p2317
(dp2318
g3
F51.0
sg4
I462
sg5
g6
(g7
g8
(lp2319
F456.10645170603976
aF464.8918539573358
atp2320
Rp2321
sba(iframe
frame
p2322
(dp2323
g3
F52.0
sg4
I463
sg5
g6
(g7
g8
(lp2324
F456.72211318136544
aF465.6798647109425
atp2325
Rp2326
sba(iframe
frame
p2327
(dp2328
g3
F51.0
sg4
I464
sg5
g6
(g7
g8
(lp2329
F457.35143357241526
aF466.4570106723995
atp2330
Rp2331
sba(iframe
frame
p2332
(dp2333
g3
F52.0
sg4
I465
sg5
g6
(g7
g8
(lp2334
F457.96709504774094
aF467.24502142600625
atp2335
Rp2336
sba(iframe
frame
p2337
(dp2338
g3
F51.0
sg4
I466
sg5
g6
(g7
g8
(lp2339
F458.59641543879076
aF468.02216738746324
atp2340
Rp2341
sba(iframe
frame
p2342
(dp2343
g3
F52.0
sg4
I467
sg5
g6
(g7
g8
(lp2344
F459.21207691411644
aF468.81017814106997
atp2345
Rp2346
sba(iframe
frame
p2347
(dp2348
g3
F51.0
sg4
I468
sg5
g6
(g7
g8
(lp2349
F459.84139730516625
aF469.58732410252696
atp2350
Rp2351
sba(iframe
frame
p2352
(dp2353
g3
F52.0
sg4
I469
sg5
g6
(g7
g8
(lp2354
F460.45705878049193
aF470.3753348561337
atp2355
Rp2356
sba(iframe
frame
p2357
(dp2358
g3
F51.0
sg4
I470
sg5
g6
(g7
g8
(lp2359
F461.08637917154175
aF471.1524808175907
atp2360
Rp2361
sba(iframe
frame
p2362
(dp2363
g3
F52.0
sg4
I471
sg5
g6
(g7
g8
(lp2364
F461.70204064686743
aF471.9404915711974
atp2365
Rp2366
sba(iframe
frame
p2367
(dp2368
g3
F51.0
sg4
I472
sg5
g6
(g7
g8
(lp2369
F462.33136103791725
aF472.7176375326544
atp2370
Rp2371
sba(iframe
frame
p2372
(dp2373
g3
F52.0
sg4
I473
sg5
g6
(g7
g8
(lp2374
F462.9470225132429
aF473.50564828626113
atp2375
Rp2376
sba(iframe
frame
p2377
(dp2378
g3
F51.0
sg4
I474
sg5
g6
(g7
g8
(lp2379
F463.57634290429274
aF474.28279424771813
atp2380
Rp2381
sba(iframe
frame
p2382
(dp2383
g3
F52.0
sg4
I475
sg5
g6
(g7
g8
(lp2384
F464.1920043796184
aF475.07080500132486
atp2385
Rp2386
sba(iframe
frame
p2387
(dp2388
g3
F51.0
sg4
I476
sg5
g6
(g7
g8
(lp2389
F464.82132477066824
aF475.84795096278185
atp2390
Rp2391
sba(iframe
frame
p2392
(dp2393
g3
F52.0
sg4
I477
sg5
g6
(g7
g8
(lp2394
F465.4369862459939
aF476.6359617163886
atp2395
Rp2396
sba(iframe
frame
p2397
(dp2398
g3
F51.0
sg4
I478
sg5
g6
(g7
g8
(lp2399
F466.06630663704374
aF477.4131076778456
atp2400
Rp2401
sba(iframe
frame
p2402
(dp2403
g3
F52.0
sg4
I479
sg5
g6
(g7
g8
(lp2404
F466.6819681123694
aF478.2011184314523
atp2405
Rp2406
sba(iframe
frame
p2407
(dp2408
g3
F51.0
sg4
I480
sg5
g6
(g7
g8
(lp2409
F467.31128850341923
aF478.9782643929093
atp2410
Rp2411
sba(iframe
frame
p2412
(dp2413
g3
F52.0
sg4
I481
sg5
g6
(g7
g8
(lp2414
F467.9269499787449
aF479.766275146516
atp2415
Rp2416
sba(iframe
frame
p2417
(dp2418
g3
F51.0
sg4
I482
sg5
g6
(g7
g8
(lp2419
F468.55627036979473
aF480.543421107973
atp2420
Rp2421
sba(iframe
frame
p2422
(dp2423
g3
F52.0
sg4
I483
sg5
g6
(g7
g8
(lp2424
F469.1719318451204
aF481.33143186157974
atp2425
Rp2426
sba(iframe
frame
p2427
(dp2428
g3
F51.0
sg4
I484
sg5
g6
(g7
g8
(lp2429
F469.8012522361702
aF482.10857782303674
atp2430
Rp2431
sba(iframe
frame
p2432
(dp2433
g3
F52.0
sg4
I485
sg5
g6
(g7
g8
(lp2434
F470.4169137114959
aF482.89658857664347
atp2435
Rp2436
sba(iframe
frame
p2437
(dp2438
g3
F51.0
sg4
I486
sg5
g6
(g7
g8
(lp2439
F471.0462341025457
aF483.67373453810046
atp2440
Rp2441
sba(iframe
frame
p2442
(dp2443
g3
F52.0
sg4
I487
sg5
g6
(g7
g8
(lp2444
F471.6618955778714
aF484.4617452917072
atp2445
Rp2446
sba(iframe
frame
p2447
(dp2448
g3
F51.0
sg4
I488
sg5
g6
(g7
g8
(lp2449
F472.2912159689212
aF485.2388912531642
atp2450
Rp2451
sba(iframe
frame
p2452
(dp2453
g3
F52.0
sg4
I489
sg5
g6
(g7
g8
(lp2454
F472.9068774442469
aF486.0269020067709
atp2455
Rp2456
sba(iframe
frame
p2457
(dp2458
g3
F51.0
sg4
I490
sg5
g6
(g7
g8
(lp2459
F473.5361978352967
aF486.8040479682279
atp2460
Rp2461
sba(iframe
frame
p2462
(dp2463
g3
F52.0
sg4
I491
sg5
g6
(g7
g8
(lp2464
F474.1518593106224
aF487.59205872183463
atp2465
Rp2466
sba(iframe
frame
p2467
(dp2468
g3
F51.0
sg4
I492
sg5
g6
(g7
g8
(lp2469
F474.7811797016722
aF488.3692046832916
atp2470
Rp2471
sba(iframe
frame
p2472
(dp2473
g3
F52.0
sg4
I493
sg5
g6
(g7
g8
(lp2474
F475.3968411769979
aF489.15721543689835
atp2475
Rp2476
sba(iframe
frame
p2477
(dp2478
g3
F51.0
sg4
I494
sg5
g6
(g7
g8
(lp2479
F476.0261615680477
aF489.93436139835535
atp2480
Rp2481
sba(iframe
frame
p2482
(dp2483
g3
F52.0
sg4
I495
sg5
g6
(g7
g8
(lp2484
F476.6418230433734
aF490.7223721519621
atp2485
Rp2486
sba(iframe
frame
p2487
(dp2488
g3
F51.0
sg4
I496
sg5
g6
(g7
g8
(lp2489
F477.2711434344232
aF491.4995181134191
atp2490
Rp2491
sba(iframe
frame
p2492
(dp2493
g3
F52.0
sg4
I497
sg5
g6
(g7
g8
(lp2494
F477.8868049097489
aF492.2875288670258
atp2495
Rp2496
sba(iframe
frame
p2497
(dp2498
g3
F51.0
sg4
I498
sg5
g6
(g7
g8
(lp2499
F478.5161253007987
aF493.0646748284828
atp2500
Rp2501
sba(iframe
frame
p2502
(dp2503
g3
F52.0
sg4
I499
sg5
g6
(g7
g8
(lp2504
F479.1317867761244
aF493.8526855820895
atp2505
Rp2506
sba(iframe
frame
p2507
(dp2508
g3
F51.0
sg4
I500
sg5
g6
(g7
g8
(lp2509
F479.7611071671742
aF494.6298315435465
atp2510
Rp2511
sba(iframe
frame
p2512
(dp2513
g3
F52.0
sg4
I501
sg5
g6
(g7
g8
(lp2514
F480.3767686424999
aF495.41784229715324
atp2515
Rp2516
sba(iframe
frame
p2517
(dp2518
g3
F51.0
sg4
I502
sg5
g6
(g7
g8
(lp2519
F481.0060890335497
aF496.19498825861024
atp2520
Rp2521
sba(iframe
frame
p2522
(dp2523
g3
F52.0
sg4
I503
sg5
g6
(g7
g8
(lp2524
F481.6217505088754
aF496.98299901221696
atp2525
Rp2526
sba(iframe
frame
p2527
(dp2528
g3
F51.0
sg4
I504
sg5
g6
(g7
g8
(lp2529
F482.2510708999252
aF497.76014497367396
atp2530
Rp2531
sba(iframe
frame
p2532
(dp2533
g3
F52.0
sg4
I505
sg5
g6
(g7
g8
(lp2534
F482.8667323752509
aF498.5481557272807
atp2535
Rp2536
sba(iframe
frame
p2537
(dp2538
g3
F51.0
sg4
I506
sg5
g6
(g7
g8
(lp2539
F483.4960527663007
aF499.3253016887377
atp2540
Rp2541
sba(iframe
frame
p2542
(dp2543
g3
F52.0
sg4
I507
sg5
g6
(g7
g8
(lp2544
F484.1117142416264
aF500.1133124423444
atp2545
Rp2546
sba(iframe
frame
p2547
(dp2548
g3
F51.0
sg4
I508
sg5
g6
(g7
g8
(lp2549
F484.7410346326762
aF500.8904584038014
atp2550
Rp2551
sba(iframe
frame
p2552
(dp2553
g3
F52.0
sg4
I509
sg5
g6
(g7
g8
(lp2554
F485.35669610800187
aF501.67846915740813
atp2555
Rp2556
sba(iframe
frame
p2557
(dp2558
g3
F51.0
sg4
I510
sg5
g6
(g7
g8
(lp2559
F485.9860164990517
aF502.4556151188651
atp2560
Rp2561
sba(iframe
frame
p2562
(dp2563
g3
F52.0
sg4
I511
sg5
g6
(g7
g8
(lp2564
F486.60167797437737
aF503.24362587247185
atp2565
Rp2566
sba(iframe
frame
p2567
(dp2568
g3
F51.0
sg4
I512
sg5
g6
(g7
g8
(lp2569
F487.2309983654272
aF504.02077183392885
atp2570
Rp2571
sba(iframe
frame
p2572
(dp2573
g3
F52.0
sg4
I513
sg5
g6
(g7
g8
(lp2574
F487.84665984075286
aF504.8087825875356
atp2575
Rp2576
sba(iframe
frame
p2577
(dp2578
g3
F51.0
sg4
I514
sg5
g6
(g7
g8
(lp2579
F488.4759802318027
aF505.58592854899257
atp2580
Rp2581
sba(iframe
frame
p2582
(dp2583
g3
F52.0
sg4
I515
sg5
g6
(g7
g8
(lp2584
F489.09164170712836
aF506.3739393025993
atp2585
Rp2586
sba(iframe
frame
p2587
(dp2588
g3
F51.0
sg4
I516
sg5
g6
(g7
g8
(lp2589
F489.7209620981782
aF507.1510852640563
atp2590
Rp2591
sba(iframe
frame
p2592
(dp2593
g3
F52.0
sg4
I517
sg5
g6
(g7
g8
(lp2594
F490.33662357350386
aF507.939096017663
atp2595
Rp2596
sba(iframe
frame
p2597
(dp2598
g3
F51.0
sg4
I518
sg5
g6
(g7
g8
(lp2599
F490.9659439645537
aF508.71624197912
atp2600
Rp2601
sba(iframe
frame
p2602
(dp2603
g3
F52.0
sg4
I519
sg5
g6
(g7
g8
(lp2604
F491.58160543987935
aF509.50425273272674
atp2605
Rp2606
sba(iframe
frame
p2607
(dp2608
g3
F51.0
sg4
I520
sg5
g6
(g7
g8
(lp2609
F492.21092583092917
aF510.28139869418374
atp2610
Rp2611
sba(iframe
frame
p2612
(dp2613
g3
F52.0
sg4
I521
sg5
g6
(g7
g8
(lp2614
F492.82658730625485
aF511.06940944779046
atp2615
Rp2616
sba(iframe
frame
p2617
(dp2618
g3
F51.0
sg4
I522
sg5
g6
(g7
g8
(lp2619
F493.45590769730467
aF511.84655540924746
atp2620
Rp2621
sba(iframe
frame
p2622
(dp2623
g3
F52.0
sg4
I523
sg5
g6
(g7
g8
(lp2624
F494.07156917263035
aF512.6345661628542
atp2625
Rp2626
sba(iframe
frame
p2627
(dp2628
g3
F51.0
sg4
I524
sg5
g6
(g7
g8
(lp2629
F494.70088956368016
aF513.4117121243112
atp2630
Rp2631
sba(iframe
frame
p2632
(dp2633
g3
F52.0
sg4
I525
sg5
g6
(g7
g8
(lp2634
F495.31655103900584
aF514.1997228779179
atp2635
Rp2636
sba(iframe
frame
p2637
(dp2638
g3
F51.0
sg4
I526
sg5
g6
(g7
g8
(lp2639
F495.94587143005566
aF514.9768688393749
atp2640
Rp2641
sba(iframe
frame
p2642
(dp2643
g3
F52.0
sg4
I527
sg5
g6
(g7
g8
(lp2644
F496.56153290538134
aF515.7648795929816
atp2645
Rp2646
sba(iframe
frame
p2647
(dp2648
g3
F51.0
sg4
I528
sg5
g6
(g7
g8
(lp2649
F497.19085329643116
aF516.5420255544386
atp2650
Rp2651
sba(iframe
frame
p2652
(dp2653
g3
F52.0
sg4
I529
sg5
g6
(g7
g8
(lp2654
F497.80651477175684
aF517.3300363080454
atp2655
Rp2656
sba(iframe
frame
p2657
(dp2658
g3
F51.0
sg4
I530
sg5
g6
(g7
g8
(lp2659
F498.43583516280665
aF518.1071822695023
atp2660
Rp2661
sba(iframe
frame
p2662
(dp2663
g3
F52.0
sg4
I531
sg5
g6
(g7
g8
(lp2664
F499.05149663813233
aF518.8951930231091
atp2665
Rp2666
sba(iframe
frame
p2667
(dp2668
g3
F51.0
sg4
I532
sg5
g6
(g7
g8
(lp2669
F499.68081702918215
aF519.6723389845661
atp2670
Rp2671
sba(iframe
frame
p2672
(dp2673
g3
F52.0
sg4
I533
sg5
g6
(g7
g8
(lp2674
F500.29647850450783
aF520.4603497381728
atp2675
Rp2676
sba(iframe
frame
p2677
(dp2678
g3
F51.0
sg4
I534
sg5
g6
(g7
g8
(lp2679
F500.92579889555765
aF521.2374956996298
atp2680
Rp2681
sba(iframe
frame
p2682
(dp2683
g3
F52.0
sg4
I535
sg5
g6
(g7
g8
(lp2684
F501.5414603708833
aF522.0255064532365
atp2685
Rp2686
sba(iframe
frame
p2687
(dp2688
g3
F51.0
sg4
I536
sg5
g6
(g7
g8
(lp2689
F502.17078076193314
aF522.8026524146935
atp2690
Rp2691
sba(iframe
frame
p2692
(dp2693
g3
F52.0
sg4
I537
sg5
g6
(g7
g8
(lp2694
F502.7864422372588
aF523.5906631683002
atp2695
Rp2696
sba(iframe
frame
p2697
(dp2698
g3
F51.0
sg4
I538
sg5
g6
(g7
g8
(lp2699
F503.41576262830864
aF524.3678091297572
atp2700
Rp2701
sba(iframe
frame
p2702
(dp2703
g3
F52.0
sg4
I539
sg5
g6
(g7
g8
(lp2704
F504.0314241036343
aF525.155819883364
atp2705
Rp2706
sba(iframe
frame
p2707
(dp2708
g3
F51.0
sg4
I540
sg5
g6
(g7
g8
(lp2709
F504.66074449468414
aF525.932965844821
atp2710
Rp2711
sba(iframe
frame
p2712
(dp2713
g3
F52.0
sg4
I541
sg5
g6
(g7
g8
(lp2714
F505.2764059700098
aF526.7209765984277
atp2715
Rp2716
sba(iframe
frame
p2717
(dp2718
g3
F51.0
sg4
I542
sg5
g6
(g7
g8
(lp2719
F505.90572636105964
aF527.4981225598847
atp2720
Rp2721
sba(iframe
frame
p2722
(dp2723
g3
F52.0
sg4
I543
sg5
g6
(g7
g8
(lp2724
F506.5213878363853
aF528.2861333134914
atp2725
Rp2726
sba(iframe
frame
p2727
(dp2728
g3
F51.0
sg4
I544
sg5
g6
(g7
g8
(lp2729
F507.15070822743513
aF529.0632792749484
atp2730
Rp2731
sba(iframe
frame
p2732
(dp2733
g3
F52.0
sg4
I545
sg5
g6
(g7
g8
(lp2734
F507.7663697027608
aF529.8512900285551
atp2735
Rp2736
sba(iframe
frame
p2737
(dp2738
g3
F51.0
sg4
I546
sg5
g6
(g7
g8
(lp2739
F508.39569009381063
aF530.6284359900121
atp2740
Rp2741
sba(iframe
frame
p2742
(dp2743
g3
F52.0
sg4
I547
sg5
g6
(g7
g8
(lp2744
F509.0113515691363
aF531.4164467436188
atp2745
Rp2746
sba(iframe
frame
p2747
(dp2748
g3
F51.0
sg4
I548
sg5
g6
(g7
g8
(lp2749
F509.6406719601861
aF532.1935927050758
atp2750
Rp2751
sba(iframe
frame
p2752
(dp2753
g3
F52.0
sg4
I549
sg5
g6
(g7
g8
(lp2754
F510.2563334355118
aF532.9816034586826
atp2755
Rp2756
sba(iframe
frame
p2757
(dp2758
g3
F51.0
sg4
I550
sg5
g6
(g7
g8
(lp2759
F510.8856538265616
aF533.7587494201396
atp2760
Rp2761
sba(iframe
frame
p2762
(dp2763
g3
F52.0
sg4
I551
sg5
g6
(g7
g8
(lp2764
F511.5013153018873
aF534.5467601737463
atp2765
Rp2766
sba(iframe
frame
p2767
(dp2768
g3
F51.0
sg4
I552
sg5
g6
(g7
g8
(lp2769
F512.1306356929372
aF535.3239061352033
atp2770
Rp2771
sba(iframe
frame
p2772
(dp2773
g3
F52.0
sg4
I553
sg5
g6
(g7
g8
(lp2774
F512.7462971682628
aF536.11191688881
atp2775
Rp2776
sba(iframe
frame
p2777
(dp2778
g3
F51.0
sg4
I554
sg5
g6
(g7
g8
(lp2779
F513.3756175593127
aF536.889062850267
atp2780
Rp2781
sba(iframe
frame
p2782
(dp2783
g3
F52.0
sg4
I555
sg5
g6
(g7
g8
(lp2784
F513.9912790346383
aF537.6770736038737
atp2785
Rp2786
sba(iframe
frame
p2787
(dp2788
g3
F51.0
sg4
I556
sg5
g6
(g7
g8
(lp2789
F514.6205994256882
aF538.4542195653307
atp2790
Rp2791
sba(iframe
frame
p2792
(dp2793
g3
F52.0
sg4
I557
sg5
g6
(g7
g8
(lp2794
F515.2362609010138
aF539.2422303189375
atp2795
Rp2796
sba(iframe
frame
p2797
(dp2798
g3
F51.0
sg4
I558
sg5
g6
(g7
g8
(lp2799
F515.8655812920637
aF540.0193762803945
atp2800
Rp2801
sba(iframe
frame
p2802
(dp2803
g3
F52.0
sg4
I559
sg5
g6
(g7
g8
(lp2804
F516.4812427673893
aF540.8073870340012
atp2805
Rp2806
sba(iframe
frame
p2807
(dp2808
g3
F51.0
sg4
I560
sg5
g6
(g7
g8
(lp2809
F517.1105631584392
aF541.5845329954582
atp2810
Rp2811
sba(iframe
frame
p2812
(dp2813
g3
F52.0
sg4
I561
sg5
g6
(g7
g8
(lp2814
F517.7262246337648
aF542.3725437490649
atp2815
Rp2816
sba(iframe
frame
p2817
(dp2818
g3
F51.0
sg4
I562
sg5
g6
(g7
g8
(lp2819
F518.3555450248147
aF543.1496897105219
atp2820
Rp2821
sba(iframe
frame
p2822
(dp2823
g3
F52.0
sg4
I563
sg5
g6
(g7
g8
(lp2824
F518.9712065001403
aF543.9377004641286
atp2825
Rp2826
sba(iframe
frame
p2827
(dp2828
g3
F51.0
sg4
I564
sg5
g6
(g7
g8
(lp2829
F519.6005268911902
aF544.7148464255856
atp2830
Rp2831
sba(iframe
frame
p2832
(dp2833
g3
F52.0
sg4
I565
sg5
g6
(g7
g8
(lp2834
F520.2161883665158
aF545.5028571791923
atp2835
Rp2836
sba(iframe
frame
p2837
(dp2838
g3
F51.0
sg4
I566
sg5
g6
(g7
g8
(lp2839
F520.8455087575657
aF546.2800031406493
atp2840
Rp2841
sba(iframe
frame
p2842
(dp2843
g3
F52.0
sg4
I567
sg5
g6
(g7
g8
(lp2844
F521.4611702328913
aF547.0680138942561
atp2845
Rp2846
sba(iframe
frame
p2847
(dp2848
g3
F51.0
sg4
I568
sg5
g6
(g7
g8
(lp2849
F522.0904906239412
aF547.8451598557131
atp2850
Rp2851
sba(iframe
frame
p2852
(dp2853
g3
F52.0
sg4
I569
sg5
g6
(g7
g8
(lp2854
F522.7061520992668
aF548.6331706093198
atp2855
Rp2856
sba(iframe
frame
p2857
(dp2858
g3
F51.0
sg4
I570
sg5
g6
(g7
g8
(lp2859
F523.3354724903166
aF549.4103165707768
atp2860
Rp2861
sba(iframe
frame
p2862
(dp2863
g3
F52.0
sg4
I571
sg5
g6
(g7
g8
(lp2864
F523.9511339656423
aF550.1983273243835
atp2865
Rp2866
sba(iframe
frame
p2867
(dp2868
g3
F51.0
sg4
I572
sg5
g6
(g7
g8
(lp2869
F524.5804543566921
aF550.9754732858405
atp2870
Rp2871
sba(iframe
frame
p2872
(dp2873
g3
F52.0
sg4
I573
sg5
g6
(g7
g8
(lp2874
F525.1961158320178
aF551.7634840394472
atp2875
Rp2876
sba(iframe
frame
p2877
(dp2878
g3
F51.0
sg4
I574
sg5
g6
(g7
g8
(lp2879
F525.8254362230676
aF552.5406300009042
atp2880
Rp2881
sba(iframe
frame
p2882
(dp2883
g3
F52.0
sg4
I575
sg5
g6
(g7
g8
(lp2884
F526.4410976983933
aF553.328640754511
atp2885
Rp2886
sba(iframe
frame
p2887
(dp2888
g3
F51.0
sg4
I576
sg5
g6
(g7
g8
(lp2889
F527.0704180894431
aF554.105786715968
atp2890
Rp2891
sba(iframe
frame
p2892
(dp2893
g3
F52.0
sg4
I577
sg5
g6
(g7
g8
(lp2894
F527.6860795647688
aF554.8937974695747
atp2895
Rp2896
sba(iframe
frame
p2897
(dp2898
g3
F51.0
sg4
I578
sg5
g6
(g7
g8
(lp2899
F528.3153999558186
aF555.6709434310317
atp2900
Rp2901
sba(iframe
frame
p2902
(dp2903
g3
F52.0
sg4
I579
sg5
g6
(g7
g8
(lp2904
F528.9310614311443
aF556.4589541846384
atp2905
Rp2906
sba(iframe
frame
p2907
(dp2908
g3
F51.0
sg4
I580
sg5
g6
(g7
g8
(lp2909
F529.5603818221941
aF557.2361001460954
atp2910
Rp2911
sba(iframe
frame
p2912
(dp2913
g3
F52.0
sg4
I581
sg5
g6
(g7
g8
(lp2914
F530.1760432975198
aF558.0241108997021
atp2915
Rp2916
sba(iframe
frame
p2917
(dp2918
g3
F51.0
sg4
I582
sg5
g6
(g7
g8
(lp2919
F530.8053636885696
aF558.8012568611591
atp2920
Rp2921
sba(iframe
frame
p2922
(dp2923
g3
F52.0
sg4
I583
sg5
g6
(g7
g8
(lp2924
F531.4210251638953
aF559.5892676147658
atp2925
Rp2926
sba(iframe
frame
p2927
(dp2928
g3
F51.0
sg4
I584
sg5
g6
(g7
g8
(lp2929
F532.0503455549451
aF560.3664135762228
atp2930
Rp2931
sba(iframe
frame
p2932
(dp2933
g3
F52.0
sg4
I585
sg5
g6
(g7
g8
(lp2934
F532.6660070302707
aF561.1544243298296
atp2935
Rp2936
sba(iframe
frame
p2937
(dp2938
g3
F51.0
sg4
I586
sg5
g6
(g7
g8
(lp2939
F533.2953274213206
aF561.9315702912866
atp2940
Rp2941
sba(iframe
frame
p2942
(dp2943
g3
F52.0
sg4
I587
sg5
g6
(g7
g8
(lp2944
F533.9109888966462
aF562.7195810448933
atp2945
Rp2946
sba(iframe
frame
p2947
(dp2948
g3
F51.0
sg4
I588
sg5
g6
(g7
g8
(lp2949
F534.5403092876961
aF563.4967270063503
atp2950
Rp2951
sba(iframe
frame
p2952
(dp2953
g3
F52.0
sg4
I589
sg5
g6
(g7
g8
(lp2954
F535.1559707630217
aF564.284737759957
atp2955
Rp2956
sba(iframe
frame
p2957
(dp2958
g3
F51.0
sg4
I590
sg5
g6
(g7
g8
(lp2959
F535.7852911540716
aF565.061883721414
atp2960
Rp2961
sba(iframe
frame
p2962
(dp2963
g3
F52.0
sg4
I591
sg5
g6
(g7
g8
(lp2964
F536.4009526293972
aF565.8498944750207
atp2965
Rp2966
sba(iframe
frame
p2967
(dp2968
g3
F51.0
sg4
I592
sg5
g6
(g7
g8
(lp2969
F537.0302730204471
aF566.6270404364777
atp2970
Rp2971
sba(iframe
frame
p2972
(dp2973
g3
F52.0
sg4
I593
sg5
g6
(g7
g8
(lp2974
F537.6459344957727
aF567.4150511900845
atp2975
Rp2976
sba(iframe
frame
p2977
(dp2978
g3
F51.0
sg4
I594
sg5
g6
(g7
g8
(lp2979
F538.2752548868226
aF568.1921971515414
atp2980
Rp2981
sba(iframe
frame
p2982
(dp2983
g3
F52.0
sg4
I595
sg5
g6
(g7
g8
(lp2984
F538.8909163621482
aF568.9802079051482
atp2985
Rp2986
sba(iframe
frame
p2987
(dp2988
g3
F51.0
sg4
I596
sg5
g6
(g7
g8
(lp2989
F539.5202367531981
aF569.7573538666052
atp2990
Rp2991
sba(iframe
frame
p2992
(dp2993
g3
F52.0
sg4
I597
sg5
g6
(g7
g8
(lp2994
F540.1358982285237
aF570.5453646202119
atp2995
Rp2996
sba(iframe
frame
p2997
(dp2998
g3
F51.0
sg4
I598
sg5
g6
(g7
g8
(lp2999
F540.7652186195736
aF571.3225105816689
atp3000
Rp3001
sba(iframe
frame
p3002
(dp3003
g3
F52.0
sg4
I599
sg5
g6
(g7
g8
(lp3004
F541.3808800948992
aF572.1105213352756
atp3005
Rp3006
sba(iframe
frame
p3007
(dp3008
g3
F51.0
sg4
I600
sg5
g6
(g7
g8
(lp3009
F542.0102004859491
aF572.8876672967326
atp3010
Rp3011
sba(iframe
frame
p3012
(dp3013
g3
F52.0
sg4
I601
sg5
g6
(g7
g8
(lp3014
F542.6258619612747
aF573.6756780503393
atp3015
Rp3016
sba(iframe
frame
p3017
(dp3018
g3
F51.0
sg4
I602
sg5
g6
(g7
g8
(lp3019
F543.2551823523246
aF574.4528240117963
atp3020
Rp3021
sba(iframe
frame
p3022
(dp3023
g3
F52.0
sg4
I603
sg5
g6
(g7
g8
(lp3024
F543.8708438276502
aF575.2408347654031
atp3025
Rp3026
sba(iframe
frame
p3027
(dp3028
g3
F51.0
sg4
I604
sg5
g6
(g7
g8
(lp3029
F544.5001642187001
aF576.0179807268601
atp3030
Rp3031
sba(iframe
frame
p3032
(dp3033
g3
F52.0
sg4
I605
sg5
g6
(g7
g8
(lp3034
F545.1158256940257
aF576.8059914804668
atp3035
Rp3036
sba(iframe
frame
p3037
(dp3038
g3
F51.0
sg4
I606
sg5
g6
(g7
g8
(lp3039
F545.7451460850756
aF577.5831374419238
atp3040
Rp3041
sba(iframe
frame
p3042
(dp3043
g3
F52.0
sg4
I607
sg5
g6
(g7
g8
(lp3044
F546.3608075604012
aF578.3711481955305
atp3045
Rp3046
sba(iframe
frame
p3047
(dp3048
g3
F51.0
sg4
I608
sg5
g6
(g7
g8
(lp3049
F546.9901279514511
aF579.1482941569875
atp3050
Rp3051
sba(iframe
frame
p3052
(dp3053
g3
F52.0
sg4
I609
sg5
g6
(g7
g8
(lp3054
F547.6057894267767
aF579.9363049105942
atp3055
Rp3056
sba(iframe
frame
p3057
(dp3058
g3
F51.0
sg4
I610
sg5
g6
(g7
g8
(lp3059
F548.2351098178266
aF580.7134508720512
atp3060
Rp3061
sba(iframe
frame
p3062
(dp3063
g3
F52.0
sg4
I611
sg5
g6
(g7
g8
(lp3064
F548.8507712931522
aF581.501461625658
atp3065
Rp3066
sba(iframe
frame
p3067
(dp3068
g3
F51.0
sg4
I612
sg5
g6
(g7
g8
(lp3069
F549.4800916842021
aF582.278607587115
atp3070
Rp3071
sba(iframe
frame
p3072
(dp3073
g3
F52.0
sg4
I613
sg5
g6
(g7
g8
(lp3074
F550.0957531595277
aF583.0666183407217
atp3075
Rp3076
sba(iframe
frame
p3077
(dp3078
g3
F51.0
sg4
I614
sg5
g6
(g7
g8
(lp3079
F550.7250735505776
aF583.8437643021787
atp3080
Rp3081
sba(iframe
frame
p3082
(dp3083
g3
F52.0
sg4
I615
sg5
g6
(g7
g8
(lp3084
F551.3407350259032
aF584.6317750557854
atp3085
Rp3086
sba(iframe
frame
p3087
(dp3088
g3
F51.0
sg4
I616
sg5
g6
(g7
g8
(lp3089
F551.9700554169531
aF585.4089210172424
atp3090
Rp3091
sba(iframe
frame
p3092
(dp3093
g3
F52.0
sg4
I617
sg5
g6
(g7
g8
(lp3094
F552.5857168922787
aF586.1969317708491
atp3095
Rp3096
sba(iframe
frame
p3097
(dp3098
g3
F51.0
sg4
I618
sg5
g6
(g7
g8
(lp3099
F553.2150372833286
aF586.9740777323061
atp3100
Rp3101
sba(iframe
frame
p3102
(dp3103
g3
F52.0
sg4
I619
sg5
g6
(g7
g8
(lp3104
F553.8306987586542
aF587.7620884859128
atp3105
Rp3106
sba(iframe
frame
p3107
(dp3108
g3
F51.0
sg4
I620
sg5
g6
(g7
g8
(lp3109
F554.4600191497041
aF588.5392344473698
atp3110
Rp3111
sba(iframe
frame
p3112
(dp3113
g3
F52.0
sg4
I621
sg5
g6
(g7
g8
(lp3114
F555.0756806250297
aF589.3272452009766
atp3115
Rp3116
sba(iframe
frame
p3117
(dp3118
g3
F51.0
sg4
I622
sg5
g6
(g7
g8
(lp3119
F555.7050010160796
aF590.1043911624336
atp3120
Rp3121
sba(iframe
frame
p3122
(dp3123
g3
F52.0
sg4
I623
sg5
g6
(g7
g8
(lp3124
F556.3206624914052
aF590.8924019160403
atp3125
Rp3126
sba(iframe
frame
p3127
(dp3128
g3
F51.0
sg4
I624
sg5
g6
(g7
g8
(lp3129
F556.9499828824551
aF591.6695478774973
atp3130
Rp3131
sba(iframe
frame
p3132
(dp3133
g3
F52.0
sg4
I625
sg5
g6
(g7
g8
(lp3134
F557.5656443577807
aF592.457558631104
atp3135
Rp3136
sba(iframe
frame
p3137
(dp3138
g3
F51.0
sg4
I626
sg5
g6
(g7
g8
(lp3139
F558.1949647488306
aF593.234704592561
atp3140
Rp3141
sba(iframe
frame
p3142
(dp3143
g3
F52.0
sg4
I627
sg5
g6
(g7
g8
(lp3144
F558.8106262241562
aF594.0227153461677
atp3145
Rp3146
sba(iframe
frame
p3147
(dp3148
g3
F51.0
sg4
I628
sg5
g6
(g7
g8
(lp3149
F559.439946615206
aF594.7998613076247
atp3150
Rp3151
sba(iframe
frame
p3152
(dp3153
g3
F52.0
sg4
I629
sg5
g6
(g7
g8
(lp3154
F560.0556080905317
aF595.5878720612315
atp3155
Rp3156
sba(iframe
frame
p3157
(dp3158
g3
F51.0
sg4
I630
sg5
g6
(g7
g8
(lp3159
F560.6849284815816
aF596.3650180226884
atp3160
Rp3161
sba(iframe
frame
p3162
(dp3163
g3
F52.0
sg4
I631
sg5
g6
(g7
g8
(lp3164
F561.3005899569072
aF597.1530287762952
atp3165
Rp3166
sba(iframe
frame
p3167
(dp3168
g3
F51.0
sg4
I632
sg5
g6
(g7
g8
(lp3169
F561.929910347957
aF597.9301747377522
atp3170
Rp3171
sba(iframe
frame
p3172
(dp3173
g3
F52.0
sg4
I633
sg5
g6
(g7
g8
(lp3174
F562.5455718232827
aF598.7181854913589
atp3175
Rp3176
sba(iframe
frame
p3177
(dp3178
g3
F51.0
sg4
I634
sg5
g6
(g7
g8
(lp3179
F563.1748922143325
aF599.4953314528159
atp3180
Rp3181
sba(iframe
frame
p3182
(dp3183
g3
F52.0
sg4
I635
sg5
g6
(g7
g8
(lp3184
F563.7905536896582
aF600.2833422064226
atp3185
Rp3186
sba(iframe
frame
p3187
(dp3188
g3
F51.0
sg4
I636
sg5
g6
(g7
g8
(lp3189
F564.419874080708
aF601.0604881678796
atp3190
Rp3191
sba(iframe
frame
p3192
(dp3193
g3
F52.0
sg4
I637
sg5
g6
(g7
g8
(lp3194
F565.0355355560337
aF601.8484989214863
atp3195
Rp3196
sba(iframe
frame
p3197
(dp3198
g3
F51.0
sg4
I638
sg5
g6
(g7
g8
(lp3199
F565.6648559470835
aF602.6256448829433
atp3200
Rp3201
sba(iframe
frame
p3202
(dp3203
g3
F52.0
sg4
I639
sg5
g6
(g7
g8
(lp3204
F566.2805174224092
aF603.4136556365501
atp3205
Rp3206
sba(iframe
frame
p3207
(dp3208
g3
F51.0
sg4
I640
sg5
g6
(g7
g8
(lp3209
F566.909837813459
aF604.190801598007
atp3210
Rp3211
sba(iframe
frame
p3212
(dp3213
g3
F52.0
sg4
I641
sg5
g6
(g7
g8
(lp3214
F567.5254992887847
aF604.9788123516138
atp3215
Rp3216
sba(iframe
frame
p3217
(dp3218
g3
F51.0
sg4
I642
sg5
g6
(g7
g8
(lp3219
F568.1548196798345
aF605.7559583130708
atp3220
Rp3221
sba(iframe
frame
p3222
(dp3223
g3
F52.0
sg4
I643
sg5
g6
(g7
g8
(lp3224
F568.7704811551602
aF606.5439690666775
atp3225
Rp3226
sba(iframe
frame
p3227
(dp3228
g3
F51.0
sg4
I644
sg5
g6
(g7
g8
(lp3229
F569.39980154621
aF607.3211150281345
atp3230
Rp3231
sba(iframe
frame
p3232
(dp3233
g3
F52.0
sg4
I645
sg5
g6
(g7
g8
(lp3234
F570.0154630215357
aF608.1091257817412
atp3235
Rp3236
sba(iframe
frame
p3237
(dp3238
g3
F51.0
sg4
I646
sg5
g6
(g7
g8
(lp3239
F570.6447834125855
aF608.8862717431982
atp3240
Rp3241
sba(iframe
frame
p3242
(dp3243
g3
F52.0
sg4
I647
sg5
g6
(g7
g8
(lp3244
F571.2604448879111
aF609.674282496805
atp3245
Rp3246
sba(iframe
frame
p3247
(dp3248
g3
F51.0
sg4
I648
sg5
g6
(g7
g8
(lp3249
F571.889765278961
aF610.451428458262
atp3250
Rp3251
sba(iframe
frame
p3252
(dp3253
g3
F52.0
sg4
I649
sg5
g6
(g7
g8
(lp3254
F572.5054267542866
aF611.2394392118687
atp3255
Rp3256
sba(iframe
frame
p3257
(dp3258
g3
F51.0
sg4
I650
sg5
g6
(g7
g8
(lp3259
F573.1347471453365
aF612.0165851733257
atp3260
Rp3261
sba(iframe
frame
p3262
(dp3263
g3
F52.0
sg4
I651
sg5
g6
(g7
g8
(lp3264
F573.7504086206621
aF612.8045959269324
atp3265
Rp3266
sba(iframe
frame
p3267
(dp3268
g3
F51.0
sg4
I652
sg5
g6
(g7
g8
(lp3269
F574.379729011712
aF613.5817418883894
atp3270
Rp3271
sba(iframe
frame
p3272
(dp3273
g3
F52.0
sg4
I653
sg5
g6
(g7
g8
(lp3274
F574.9953904870376
aF614.3697526419961
atp3275
Rp3276
sba(iframe
frame
p3277
(dp3278
g3
F51.0
sg4
I654
sg5
g6
(g7
g8
(lp3279
F575.6247108780875
aF615.1468986034531
atp3280
Rp3281
sba(iframe
frame
p3282
(dp3283
g3
F52.0
sg4
I655
sg5
g6
(g7
g8
(lp3284
F576.2403723534131
aF615.9349093570598
atp3285
Rp3286
sba(iframe
frame
p3287
(dp3288
g3
F51.0
sg4
I656
sg5
g6
(g7
g8
(lp3289
F576.869692744463
aF616.7120553185168
atp3290
Rp3291
sba(iframe
frame
p3292
(dp3293
g3
F52.0
sg4
I657
sg5
g6
(g7
g8
(lp3294
F577.4853542197886
aF617.5000660721236
atp3295
Rp3296
sba(iframe
frame
p3297
(dp3298
g3
F51.0
sg4
I658
sg5
g6
(g7
g8
(lp3299
F578.1146746108385
aF618.2772120335806
atp3300
Rp3301
sba(iframe
frame
p3302
(dp3303
g3
F52.0
sg4
I659
sg5
g6
(g7
g8
(lp3304
F578.7303360861641
aF619.0652227871873
atp3305
Rp3306
sba(iframe
frame
p3307
(dp3308
g3
F51.0
sg4
I660
sg5
g6
(g7
g8
(lp3309
F579.359656477214
aF619.8423687486443
atp3310
Rp3311
sba(iframe
frame
p3312
(dp3313
g3
F52.0
sg4
I661
sg5
g6
(g7
g8
(lp3314
F579.9753179525396
aF620.630379502251
atp3315
Rp3316
sba(iframe
frame
p3317
(dp3318
g3
F51.0
sg4
I662
sg5
g6
(g7
g8
(lp3319
F580.6046383435895
aF621.407525463708
atp3320
Rp3321
sba(iframe
frame
p3322
(dp3323
g3
F52.0
sg4
I663
sg5
g6
(g7
g8
(lp3324
F581.2202998189151
aF622.1955362173147
atp3325
Rp3326
sba(iframe
frame
p3327
(dp3328
g3
F51.0
sg4
I664
sg5
g6
(g7
g8
(lp3329
F581.849620209965
aF622.9726821787717
atp3330
Rp3331
sba(iframe
frame
p3332
(dp3333
g3
F52.0
sg4
I665
sg5
g6
(g7
g8
(lp3334
F582.4652816852906
aF623.7606929323784
atp3335
Rp3336
sba(iframe
frame
p3337
(dp3338
g3
F51.0
sg4
I666
sg5
g6
(g7
g8
(lp3339
F583.0946020763405
aF624.5378388938354
atp3340
Rp3341
sba(iframe
frame
p3342
(dp3343
g3
F52.0
sg4
I667
sg5
g6
(g7
g8
(lp3344
F583.7102635516661
aF625.3258496474422
atp3345
Rp3346
sba(iframe
frame
p3347
(dp3348
g3
F51.0
sg4
I668
sg5
g6
(g7
g8
(lp3349
F584.339583942716
aF626.1029956088992
atp3350
Rp3351
sba(iframe
frame
p3352
(dp3353
g3
F52.0
sg4
I669
sg5
g6
(g7
g8
(lp3354
F584.9552454180416
aF626.8910063625059
atp3355
Rp3356
sba(iframe
frame
p3357
(dp3358
g3
F51.0
sg4
I670
sg5
g6
(g7
g8
(lp3359
F585.5845658090915
aF627.6681523239629
atp3360
Rp3361
sba(iframe
frame
p3362
(dp3363
g3
F52.0
sg4
I671
sg5
g6
(g7
g8
(lp3364
F586.2002272844171
aF628.4561630775696
atp3365
Rp3366
sba(iframe
frame
p3367
(dp3368
g3
F51.0
sg4
I672
sg5
g6
(g7
g8
(lp3369
F586.829547675467
aF629.2333090390266
atp3370
Rp3371
sba(iframe
frame
p3372
(dp3373
g3
F52.0
sg4
I673
sg5
g6
(g7
g8
(lp3374
F587.4452091507926
aF630.0213197926333
atp3375
Rp3376
sba(iframe
frame
p3377
(dp3378
g3
F51.0
sg4
I674
sg5
g6
(g7
g8
(lp3379
F588.0745295418425
aF630.7984657540903
atp3380
Rp3381
sba(iframe
frame
p3382
(dp3383
g3
F52.0
sg4
I675
sg5
g6
(g7
g8
(lp3384
F588.6901910171681
aF631.5864765076971
atp3385
Rp3386
sba(iframe
frame
p3387
(dp3388
g3
F51.0
sg4
I676
sg5
g6
(g7
g8
(lp3389
F589.319511408218
aF632.363622469154
atp3390
Rp3391
sba(iframe
frame
p3392
(dp3393
g3
F52.0
sg4
I677
sg5
g6
(g7
g8
(lp3394
F589.9351728835436
aF633.1516332227608
atp3395
Rp3396
sba(iframe
frame
p3397
(dp3398
g3
F51.0
sg4
I678
sg5
g6
(g7
g8
(lp3399
F590.5644932745935
aF633.9287791842178
atp3400
Rp3401
sba(iframe
frame
p3402
(dp3403
g3
F52.0
sg4
I679
sg5
g6
(g7
g8
(lp3404
F591.1801547499191
aF634.7167899378245
atp3405
Rp3406
sba(iframe
frame
p3407
(dp3408
g3
F51.0
sg4
I680
sg5
g6
(g7
g8
(lp3409
F591.809475140969
aF635.4939358992815
atp3410
Rp3411
sba(iframe
frame
p3412
(dp3413
g3
F52.0
sg4
I681
sg5
g6
(g7
g8
(lp3414
F592.4251366162946
aF636.2819466528882
atp3415
Rp3416
sba(iframe
frame
p3417
(dp3418
g3
F51.0
sg4
I682
sg5
g6
(g7
g8
(lp3419
F593.0544570073445
aF637.0590926143452
atp3420
Rp3421
sba(iframe
frame
p3422
(dp3423
g3
F52.0
sg4
I683
sg5
g6
(g7
g8
(lp3424
F593.6701184826701
aF637.847103367952
atp3425
Rp3426
sba(iframe
frame
p3427
(dp3428
g3
F51.0
sg4
I684
sg5
g6
(g7
g8
(lp3429
F594.29943887372
aF638.6242493294089
atp3430
Rp3431
sba(iframe
frame
p3432
(dp3433
g3
F52.0
sg4
I685
sg5
g6
(g7
g8
(lp3434
F594.9151003490456
aF639.4122600830157
atp3435
Rp3436
sba(iframe
frame
p3437
(dp3438
g3
F51.0
sg4
I686
sg5
g6
(g7
g8
(lp3439
F595.5444207400955
aF640.1894060444727
atp3440
Rp3441
sba(iframe
frame
p3442
(dp3443
g3
F52.0
sg4
I687
sg5
g6
(g7
g8
(lp3444
F596.1600822154211
aF640.9774167980794
atp3445
Rp3446
sba(iframe
frame
p3447
(dp3448
g3
F51.0
sg4
I688
sg5
g6
(g7
g8
(lp3449
F596.789402606471
aF641.7545627595364
atp3450
Rp3451
sba(iframe
frame
p3452
(dp3453
g3
F52.0
sg4
I689
sg5
g6
(g7
g8
(lp3454
F597.4050640817966
aF642.5425735131431
atp3455
Rp3456
sba(iframe
frame
p3457
(dp3458
g3
F51.0
sg4
I690
sg5
g6
(g7
g8
(lp3459
F598.0343844728465
aF643.3197194746001
atp3460
Rp3461
sba(iframe
frame
p3462
(dp3463
g3
F52.0
sg4
I691
sg5
g6
(g7
g8
(lp3464
F598.6500459481721
aF644.1077302282068
atp3465
Rp3466
sba(iframe
frame
p3467
(dp3468
g3
F51.0
sg4
I692
sg5
g6
(g7
g8
(lp3469
F599.279366339222
aF644.8848761896638
atp3470
Rp3471
sba(iframe
frame
p3472
(dp3473
g3
F52.0
sg4
I693
sg5
g6
(g7
g8
(lp3474
F599.8950278145476
aF645.6728869432706
atp3475
Rp3476
sba.