(lp0
(iframe
frame
p1
(dp2
S'curr_angle'
p3
I0
sS'tick'
p4
I0
sS'pos'
p5
ccopy_reg
_reconstructor
p6
(ckivy.vector
Vector
p7
c__builtin__
list
p8
(lp9
I200
aI100
atp10
Rp11
sba(iframe
frame
p12
(dp13
g3
F0.20000000298
sg4
I1
sg5
g6
(g7
g8
(lp14
F200.9999939076576
aF100.00349065146723
atp15
Rp16
sba(iframe
frame
p17
(dp18
g3
F0.40000000596
sg4
I2
sg5
g6
(g7
g8
(lp19
F201.99996953836228
aF100.01047191186922
atp20
Rp21
sba(iframe
frame
p22
(dp23
g3
F0.60000000894
sg4
I3
sg5
g6
(g7
g8
(lp24
F202.99991470772616
aF100.02094369614149
atp25
Rp26
sba(iframe
frame
p27
(dp28
g3
F0.80000001192
sg4
I4
sg5
g6
(g7
g8
(lp29
F203.99981723173255
aF100.03490587668865
atp30
Rp31
sba(iframe
frame
p32
(dp33
g3
F1.0000000149000001
sg4
I5
sg5
g6
(g7
g8
(lp34
F204.9996649268844
aF100.05235828338596
atp35
Rp36
sba(iframe
frame
p37
(dp38
g3
F1.20000001788
sg4
I6
sg5
g6
(g7
g8
(lp39
F205.99944561035272
aF100.07330070358131
atp40
Rp41
sba(iframe
frame
p42
(dp43
g3
F1.40000002086
sg4
I7
sg5
g6
(g7
g8
(lp44
F206.99914710012501
aF100.09773288209793
atp45
Rp46
sba(iframe
frame
p47
(dp48
g3
F1.60000002384
sg4
I8
sg5
g6
(g7
g8
(lp49
F207.99875721515374
aF100.12565452123742
atp50
Rp51
sba(iframe
frame
p52
(dp53
g3
F1.80000002682
sg4
I9
sg5
g6
(g7
g8
(lp54
F208.99826377550477
aF100.15706528078341
atp55
Rp56
sba(iframe
frame
p57
(dp58
g3
F2.0000000298000002
sg4
I10
sg5
g6
(g7
g8
(lp59
F209.99765460250572
aF100.19196477800571
atp60
Rp61
sba(iframe
frame
p62
(dp63
g3
F2.2000000327800002
sg4
I11
sg5
g6
(g7
g8
(lp64
F210.99691751889438
aF100.23035258766492
atp65
Rp66
sba(iframe
frame
p67
(dp68
g3
F2.40000003576
sg4
I12
sg5
g6
(g7
g8
(lp69
F211.9960403489671
aF100.2722282420177
atp70
Rp71
sba(iframe
frame
p72
(dp73
g3
F2.60000003874
sg4
I13
sg5
g6
(g7
g8
(lp74
F212.99501091872716
aF100.3175912308224
atp75
Rp76
sba(iframe
frame
p77
(dp78
g3
F2.80000004172
sg4
I14
sg5
g6
(g7
g8
(lp79
F213.99381705603304
aF100.3664410013453
atp80
Rp81
sba(iframe
frame
p82
(dp83
g3
F3.0000000447
sg4
I15
sg5
g6
(g7
g8
(lp84
F214.9924465907468
aF100.41877695836733
atp85
Rp86
sba(iframe
frame
p87
(dp88
g3
F3.20000004768
sg4
I16
sg5
g6
(g7
g8
(lp89
F215.99088735488232
aF100.47459846419137
atp90
Rp91
sba(iframe
frame
p92
(dp93
g3
F3.40000005066
sg4
I17
sg5
g6
(g7
g8
(lp94
F216.98912718275363
aF100.53390483864996
atp95
Rp96
sba(iframe
frame
p97
(dp98
g3
F3.60000005364
sg4
I18
sg5
g6
(g7
g8
(lp99
F217.98715391112313
aF100.59669535911362
atp100
Rp101
sba(iframe
frame
p102
(dp103
g3
F3.80000005662
sg4
I19
sg5
g6
(g7
g8
(lp104
F218.98495537934969
aF100.66296926049965
atp105
Rp106
sba(iframe
frame
p107
(dp108
g3
F4.0000000596000005
sg4
I20
sg5
g6
(g7
g8
(lp109
F219.98251942953695
aF100.73272573528146
atp110
Rp111
sba(iframe
frame
p112
(dp113
g3
F4.200000062580001
sg4
I21
sg5
g6
(g7
g8
(lp114
F220.97983390668142
aF100.80596393349839
atp115
Rp116
sba(iframe
frame
p117
(dp118
g3
F4.400000065560001
sg4
I22
sg5
g6
(g7
g8
(lp119
F221.97688665882055
aF100.88268296276607
atp120
Rp121
sba(iframe
frame
p122
(dp123
g3
F4.600000068540002
sg4
I23
sg5
g6
(g7
g8
(lp124
F222.97366553718086
aF100.96288188828733
atp125
Rp126
sba(iframe
frame
p127
(dp128
g3
F4.800000071520002
sg4
I24
sg5
g6
(g7
g8
(lp129
F223.97015839632593
aF101.04655973286353
atp130
Rp131
sba(iframe
frame
p132
(dp133
g3
F5.000000074500003
sg4
I25
sg5
g6
(g7
g8
(lp134
F224.96635309430434
aF101.1337154769065
atp135
Rp136
sba(iframe
frame
p137
(dp138
g3
F5.200000077480003
sg4
I26
sg5
g6
(g7
g8
(lp139
F225.96223749279775
aF101.224348058451
atp140
Rp141
sba(iframe
frame
p142
(dp143
g3
F5.4000000804600035
sg4
I27
sg5
g6
(g7
g8
(lp144
F226.9577994572687
aF101.31845637316758
atp145
Rp146
sba(iframe
frame
p147
(dp148
g3
F5.600000083440004
sg4
I28
sg5
g6
(g7
g8
(lp149
F227.95302685710843
aF101.41603927437608
atp150
Rp151
sba(iframe
frame
p152
(dp153
g3
F5.800000086420004
sg4
I29
sg5
g6
(g7
g8
(lp154
F228.9479075657848
aF101.51709557305962
atp155
Rp156
sba(iframe
frame
p157
(dp158
g3
F6.000000089400005
sg4
I30
sg5
g6
(g7
g8
(lp159
F229.94242946098996
aF101.62162403787904
atp160
Rp161
sba(iframe
frame
p162
(dp163
g3
F6.200000092380005
sg4
I31
sg5
g6
(g7
g8
(lp164
F230.93658042478813
aF101.72962339518797
atp165
Rp166
sba(iframe
frame
p167
(dp168
g3
F6.400000095360006
sg4
I32
sg5
g6
(g7
g8
(lp169
F231.9303483437632
aF101.84109232904827
atp170
Rp171
sba(iframe
frame
p172
(dp173
g3
F6.600000098340006
sg4
I33
sg5
g6
(g7
g8
(lp174
F232.92372110916634
aF101.95602948124612
atp175
Rp176
sba(iframe
frame
p177
(dp178
g3
F6.800000101320006
sg4
I34
sg5
g6
(g7
g8
(lp179
F233.9166866170635
aF102.07443345130855
atp180
Rp181
sba(iframe
frame
p182
(dp183
g3
F7.000000104300007
sg4
I35
sg5
g6
(g7
g8
(lp184
F234.90923276848298
aF102.19630279652051
atp185
Rp186
sba(iframe
frame
p187
(dp188
g3
F7.200000107280007
sg4
I36
sg5
g6
(g7
g8
(lp189
F235.90134746956278
aF102.32163603194245
atp190
Rp191
sba(iframe
frame
p192
(dp193
g3
F7.400000110260008
sg4
I37
sg5
g6
(g7
g8
(lp194
F236.89301863169803
aF102.45043163042838
atp195
Rp196
sba(iframe
frame
p197
(dp198
g3
F7.600000113240008
sg4
I38
sg5
g6
(g7
g8
(lp199
F237.88423417168818
aF102.58268802264456
atp200
Rp201
sba(iframe
frame
p202
(dp203
g3
F7.8000001162200086
sg4
I39
sg5
g6
(g7
g8
(lp204
F238.87498201188433
aF102.71840359708852
atp205
Rp206
sba(iframe
frame
p207
(dp208
g3
F8.000000119200008
sg4
I40
sg5
g6
(g7
g8
(lp209
F239.86525008033635
aF102.85757670010878
atp210
Rp211
sba(iframe
frame
p212
(dp213
g3
F8.200000122180008
sg4
I41
sg5
g6
(g7
g8
(lp214
F240.85502631094
aF103.00020563592493
atp215
Rp216
sba(iframe
frame
p217
(dp218
g3
F8.400000125160007
sg4
I42
sg5
g6
(g7
g8
(lp219
F241.84429864358387
aF103.14628866664836
atp220
Rp221
sba(iframe
frame
p222
(dp223
g3
F8.600000128140007
sg4
I43
sg5
g6
(g7
g8
(lp224
F242.83305502429644
aF103.29582401230338
atp225
Rp226
sba(iframe
frame
p227
(dp228
g3
F8.800000131120006
sg4
I44
sg5
g6
(g7
g8
(lp229
F243.8212834053929
aF103.44880985084896
atp230
Rp231
sba(iframe
frame
p232
(dp233
g3
F9.000000134100006
sg4
I45
sg5
g6
(g7
g8
(lp234
F244.8089717456219
aF103.60524431820086
atp235
Rp236
sba(iframe
frame
p237
(dp238
g3
F9.200000137080005
sg4
I46
sg5
g6
(g7
g8
(lp239
F245.79610801031237
aF103.76512550825441
atp240
Rp241
sba(iframe
frame
p242
(dp243
g3
F9.400000140060005
sg4
I47
sg5
g6
(g7
g8
(lp244
F246.78268017152007
aF103.92845147290772
atp245
Rp246
sba(iframe
frame
p247
(dp248
g3
F9.600000143040004
sg4
I48
sg5
g6
(g7
g8
(lp249
F247.76867620817424
aF104.09522022208539
atp250
Rp251
sba(iframe
frame
p252
(dp253
g3
F9.800000146020004
sg4
I49
sg5
g6
(g7
g8
(lp254
F248.75408410622396
aF104.26542972376276
atp255
Rp256
sba(iframe
frame
p257
(dp258
g3
F10.000000149000003
sg4
I50
sg5
g6
(g7
g8
(lp259
F249.7388918587846
aF104.43907790399072
atp260
Rp261
sba(iframe
frame
p262
(dp263
g3
F10.200000151980003
sg4
I51
sg5
g6
(g7
g8
(lp264
F250.7230874662841
aF104.61616264692094
atp265
Rp266
sba(iframe
frame
p267
(dp268
g3
F10.400000154960003
sg4
I52
sg5
g6
(g7
g8
(lp269
F251.70665893660927
aF104.79668179483163
atp270
Rp271
sba(iframe
frame
p272
(dp273
g3
F10.600000157940002
sg4
I53
sg5
g6
(g7
g8
(lp274
F252.68959428525176
aF104.98063314815388
atp275
Rp276
sba(iframe
frame
p277
(dp278
g3
F10.800000160920002
sg4
I54
sg5
g6
(g7
g8
(lp279
F253.67188153545416
aF105.16801446549844
atp280
Rp281
sba(iframe
frame
p282
(dp283
g3
F11.000000163900001
sg4
I55
sg5
g6
(g7
g8
(lp284
F254.653508718356
aF105.35882346368302
atp285
Rp286
sba(iframe
frame
p287
(dp288
g3
F11.20000016688
sg4
I56
sg5
g6
(g7
g8
(lp289
F255.63446387313945
aF105.55305781776013
atp290
Rp291
sba(iframe
frame
p292
(dp293
g3
F11.40000016986
sg4
I57
sg5
g6
(g7
g8
(lp294
F256.6147350471752
aF105.75071516104539
atp295
Rp296
sba(iframe
frame
p297
(dp298
g3
F11.60000017284
sg4
I58
sg5
g6
(g7
g8
(lp299
F257.594310296168
aF105.95179308514636
atp300
Rp301
sba(iframe
frame
p302
(dp303
g3
F11.80000017582
sg4
I59
sg5
g6
(g7
g8
(lp304
F258.57317768430215
aF106.15628913999194
atp305
Rp306
sba(iframe
frame
p307
(dp308
g3
F12.000000178799999
sg4
I60
sg5
g6
(g7
g8
(lp309
F259.55132528438713
aF106.36420083386216
atp310
Rp311
sba(iframe
frame
p312
(dp313
g3
F12.200000181779998
sg4
I61
sg5
g6
(g7
g8
(lp314
F260.52874117800275
aF106.57552563341855
atp315
Rp316
sba(iframe
frame
p317
(dp318
g3
F12.400000184759998
sg4
I62
sg5
g6
(g7
g8
(lp319
F261.5054134556445
aF106.79026096373507
atp320
Rp321
sba(iframe
frame
p322
(dp323
g3
F12.600000187739997
sg4
I63
sg5
g6
(g7
g8
(lp324
F262.48133021686846
aF107.00840420832938
atp325
Rp326
sba(iframe
frame
p327
(dp328
g3
F12.800000190719997
sg4
I64
sg5
g6
(g7
g8
(lp329
F263.45647957043656
aF107.22995270919482
atp330
Rp331
sba(iframe
frame
p332
(dp333
g3
F13.000000193699996
sg4
I65
sg5
g6
(g7
g8
(lp334
F264.4308496344613
aF107.45490376683274
atp335
Rp336
sba(iframe
frame
p337
(dp338
g3
F13.200000196679996
sg4
I66
sg5
g6
(g7
g8
(lp339
F265.4044285365506
aF107.68325464028541
atp340
Rp341
sba(iframe
frame
p342
(dp343
g3
F13.400000199659996
sg4
I67
sg5
g6
(g7
g8
(lp344
F266.3772044139524
aF107.91500254716942
atp345
Rp346
sba(iframe
frame
p347
(dp348
g3
F13.600000202639995
sg4
I68
sg5
g6
(g7
g8
(lp349
F267.3491654136993
aF108.15014466370958
atp350
Rp351
sba(iframe
frame
p352
(dp353
g3
F13.800000205619995
sg4
I69
sg5
g6
(g7
g8
(lp354
F268.32029969275294
aF108.38867812477332
atp355
Rp356
sba(iframe
frame
p357
(dp358
g3
F14.000000208599994
sg4
I70
sg5
g6
(g7
g8
(lp359
F269.29059541814814
aF108.6306000239056
atp360
Rp361
sba(iframe
frame
p362
(dp363
g3
F14.200000211579994
sg4
I71
sg5
g6
(g7
g8
(lp364
F270.2600407671374
aF108.87590741336435
atp365
Rp366
sba(iframe
frame
p367
(dp368
g3
F14.400000214559993
sg4
I72
sg5
g6
(g7
g8
(lp369
F271.22862392733475
aF109.12459730415632
atp370
Rp371
sba(iframe
frame
p372
(dp373
g3
F14.600000217539993
sg4
I73
sg5
g6
(g7
g8
(lp374
F272.1963330968597
aF109.37666666607363
atp375
Rp376
sba(iframe
frame
p377
(dp378
g3
F14.800000220519992
sg4
I74
sg5
g6
(g7
g8
(lp379
F273.16315648448096
aF109.63211242773053
atp380
Rp381
sba(iframe
frame
p382
(dp383
g3
F15.000000223499992
sg4
I75
sg5
g6
(g7
g8
(lp384
F274.1290823097604
aF109.89093147660095
atp385
Rp386
sba(iframe
frame
p387
(dp388
g3
F15.200000226479991
sg4
I76
sg5
g6
(g7
g8
(lp389
F275.09409880319635
aF110.15312065905636
atp390
Rp391
sba(iframe
frame
p392
(dp393
g3
F15.400000229459991
sg4
I77
sg5
g6
(g7
g8
(lp394
F276.0581942063669
aF110.41867678040421
atp395
Rp396
sba(iframe
frame
p397
(dp398
g3
F15.60000023243999
sg4
I78
sg5
g6
(g7
g8
(lp399
F277.0213567720736
aF110.68759660492688
atp400
Rp401
sba(iframe
frame
p402
(dp403
g3
F15.80000023541999
sg4
I79
sg5
g6
(g7
g8
(lp404
F277.9835747644841
aF110.95987685592107
atp405
Rp406
sba(iframe
frame
p407
(dp408
g3
F16.00000023839999
sg4
I80
sg5
g6
(g7
g8
(lp409
F278.9448364592755
aF111.23551421573775
atp410
Rp411
sba(iframe
frame
p412
(dp413
g3
F16.200000241379993
sg4
I81
sg5
g6
(g7
g8
(lp414
F279.9051301437771
aF111.51450532582258
atp415
Rp416
sba(iframe
frame
p417
(dp418
g3
F16.400000244359994
sg4
I82
sg5
g6
(g7
g8
(lp419
F280.864444117113
aF111.79684678675683
atp420
Rp421
sba(iframe
frame
p422
(dp423
g3
F16.600000247339995
sg4
I83
sg5
g6
(g7
g8
(lp424
F281.82276669034485
aF112.08253515829878
atp425
Rp426
sba(iframe
frame
p427
(dp428
g3
F16.800000250319997
sg4
I84
sg5
g6
(g7
g8
(lp429
F282.78008618661414
aF112.37156695942569
atp430
Rp431
sba(iframe
frame
p432
(dp433
g3
F17.000000253299998
sg4
I85
sg5
g6
(g7
g8
(lp434
F283.73639094128464
aF112.66393866837618
atp435
Rp436
sba(iframe
frame
p437
(dp438
g3
F17.20000025628
sg4
I86
sg5
g6
(g7
g8
(lp439
F284.6916693020843
aF112.95964672269312
atp440
Rp441
sba(iframe
frame
p442
(dp443
g3
F17.40000025926
sg4
I87
sg5
g6
(g7
g8
(lp444
F285.6459096292474
aF113.25868751926708
atp445
Rp446
sba(iframe
frame
p447
(dp448
g3
F17.600000262240002
sg4
I88
sg5
g6
(g7
g8
(lp449
F286.5991002956564
aF113.56105741438023
atp450
Rp451
sba(iframe
frame
p452
(dp453
g3
F17.800000265220003
sg4
I89
sg5
g6
(g7
g8
(lp454
F287.5512296869835
aF113.86675272375071
atp455
Rp456
sba(iframe
frame
p457
(dp458
g3
F18.000000268200004
sg4
I90
sg5
g6
(g7
g8
(lp459
F288.50228620183213
aF114.17576972257753
atp460
Rp461
sba(iframe
frame
p462
(dp463
g3
F18.200000271180006
sg4
I91
sg5
g6
(g7
g8
(lp464
F289.4522582518785
aF114.48810464558596
atp465
Rp466
sba(iframe
frame
p467
(dp468
g3
F18.400000274160007
sg4
I92
sg5
g6
(g7
g8
(lp469
F290.40113426201265
aF114.80375368707344
atp470
Rp471
sba(iframe
frame
p472
(dp473
g3
F18.60000027714001
sg4
I93
sg5
g6
(g7
g8
(lp474
F291.34890267047945
aF115.12271300095587
atp475
Rp476
sba(iframe
frame
p477
(dp478
g3
F18.80000028012001
sg4
I94
sg5
g6
(g7
g8
(lp479
F292.29555192901955
aF115.44497870081456
atp480
Rp481
sba(iframe
frame
p482
(dp483
g3
F19.00000028310001
sg4
I95
sg5
g6
(g7
g8
(lp484
F293.24107050301023
aF115.77054685994355
atp485
Rp486
sba(iframe
frame
p487
(dp488
g3
F19.200000286080012
sg4
I96
sg5
g6
(g7
g8
(lp489
F294.1854468716057
aF116.09941351139744
atp490
Rp491
sba(iframe
frame
p492
(dp493
g3
F19.400000289060014
sg4
I97
sg5
g6
(g7
g8
(lp494
F295.1286695278775
aF116.43157464803976
atp495
Rp496
sba(iframe
frame
p497
(dp498
g3
F19.600000292040015
sg4
I98
sg5
g6
(g7
g8
(lp499
F296.07072697895495
aF116.76702622259174
atp500
Rp501
sba(iframe
frame
p502
(dp503
g3
F19.800000295020016
sg4
I99
sg5
g6
(g7
g8
(lp504
F297.011607746165
aF117.1057641476817
atp505
Rp506
sba(iframe
frame
p507
(dp508
g3
F20.000000298000018
sg4
I100
sg5
g6
(g7
g8
(lp509
F297.951300365172
aF117.44778429589478
atp510
Rp511
sba(iframe
frame
p512
(dp513
g3
F20.20000030098002
sg4
I101
sg5
g6
(g7
g8
(lp514
F298.8897933861177
aF117.7930824998233
atp515
Rp516
sba(iframe
frame
p517
(dp518
g3
F20.40000030396002
sg4
I102
sg5
g6
(g7
g8
(lp519
F299.82707537376035
aF118.14165455211749
atp520
Rp521
sba(iframe
frame
p522
(dp523
g3
F20.60000030694002
sg4
I103
sg5
g6
(g7
g8
(lp524
F300.76313490761447
aF118.49349620553677
atp525
Rp526
sba(iframe
frame
p527
(dp528
g3
F20.800000309920023
sg4
I104
sg5
g6
(g7
g8
(lp529
F301.69796058208965
aF118.8486031730015
atp530
Rp531
sba(iframe
frame
p532
(dp533
g3
F21.000000312900024
sg4
I105
sg5
g6
(g7
g8
(lp534
F302.63154100662973
aF119.2069711276452
atp535
Rp536
sba(iframe
frame
p537
(dp538
g3
F21.200000315880025
sg4
I106
sg5
g6
(g7
g8
(lp539
F303.56386480585155
aF119.56859570286733
atp540
Rp541
sba(iframe
frame
p542
(dp543
g3
F21.400000318860027
sg4
I107
sg5
g6
(g7
g8
(lp544
F304.49492061968346
aF119.93347249238641
atp545
Rp546
sba(iframe
frame
p547
(dp548
g3
F21.600000321840028
sg4
I108
sg5
g6
(g7
g8
(lp549
F305.4246971035039
aF120.30159705029381
atp550
Rp551
sba(iframe
frame
p552
(dp553
g3
F21.80000032482003
sg4
I109
sg5
g6
(g7
g8
(lp554
F306.35318292827947
aF120.6729648911078
atp555
Rp556
sba(iframe
frame
p557
(dp558
g3
F22.00000032780003
sg4
I110
sg5
g6
(g7
g8
(lp559
F307.28036678070305
aF121.0475714898283
atp560
Rp561
sba(iframe
frame
p562
(dp563
g3
F22.200000330780032
sg4
I111
sg5
g6
(g7
g8
(lp564
F308.2062373633317
aF121.42541228199201
atp565
Rp566
sba(iframe
frame
p567
(dp568
g3
F22.400000333760033
sg4
I112
sg5
g6
(g7
g8
(lp569
F309.1307833947242
aF121.80648266372796
atp570
Rp571
sba(iframe
frame
p572
(dp573
g3
F22.600000336740035
sg4
I113
sg5
g6
(g7
g8
(lp574
F310.0539936095786
aF122.19077799181368
atp575
Rp576
sba(iframe
frame
p577
(dp578
g3
F22.800000339720036
sg4
I114
sg5
g6
(g7
g8
(lp579
F310.97585675886944
aF122.57829358373172
atp580
Rp581
sba(iframe
frame
p582
(dp583
g3
F23.000000342700037
sg4
I115
sg5
g6
(g7
g8
(lp584
F311.8963616099848
aF122.96902471772675
atp585
Rp586
sba(iframe
frame
p587
(dp588
g3
F23.20000034568004
sg4
I116
sg5
g6
(g7
g8
(lp589
F312.8154969468633
aF123.36296663286308
atp590
Rp591
sba(iframe
frame
p592
(dp593
g3
F23.40000034866004
sg4
I117
sg5
g6
(g7
g8
(lp594
F313.7332515701305
aF123.76011452908264
atp595
Rp596
sba(iframe
frame
p597
(dp598
g3
F23.60000035164004
sg4
I118
sg5
g6
(g7
g8
(lp599
F314.6496142972357
aF124.1604635672635
atp600
Rp601
sba(iframe
frame
p602
(dp603
g3
F23.800000354620042
sg4
I119
sg5
g6
(g7
g8
(lp604
F315.5645739625879
aF124.56400886927884
atp605
Rp606
sba(iframe
frame
p607
(dp608
g3
F24.000000357600044
sg4
I120
sg5
g6
(g7
g8
(lp609
F316.4781194176919
aF124.97074551805635
atp610
Rp611
sba(iframe
frame
p612
(dp613
g3
F24.200000360580045
sg4
I121
sg5
g6
(g7
g8
(lp614
F317.3902395312844
aF125.38066855763817
atp615
Rp616
sba(iframe
frame
p617
(dp618
g3
F24.400000363560046
sg4
I122
sg5
g6
(g7
g8
(lp619
F318.3009231894693
aF125.79377299324129
atp620
Rp621
sba(iframe
frame
p622
(dp623
g3
F24.600000366540048
sg4
I123
sg5
g6
(g7
g8
(lp624
F319.21015929585326
aF126.21005379131837
atp625
Rp626
sba(iframe
frame
p627
(dp628
g3
F24.80000036952005
sg4
I124
sg5
g6
(g7
g8
(lp629
F320.117936771681
aF126.62950587961912
atp630
Rp631
sba(iframe
frame
p632
(dp633
g3
F25.00000037250005
sg4
I125
sg5
g6
(g7
g8
(lp634
F321.0242445559701
aF127.05212414725204
atp635
Rp636
sba(iframe
frame
p637
(dp638
g3
F25.20000037548005
sg4
I126
sg5
g6
(g7
g8
(lp639
F321.92907160564585
aF127.47790344474677
atp640
Rp641
sba(iframe
frame
p642
(dp643
g3
F25.400000378460053
sg4
I127
sg5
g6
(g7
g8
(lp644
F322.8324068956759
aF127.90683858411678
atp645
Rp646
sba(iframe
frame
p647
(dp648
g3
F25.600000381440054
sg4
I128
sg5
g6
(g7
g8
(lp649
F323.7342394192044
aF128.33892433892262
atp650
Rp651
sba(iframe
frame
p652
(dp653
g3
F25.800000384420056
sg4
I129
sg5
g6
(g7
g8
(lp654
F324.6345581876865
aF128.77415544433555
atp655
Rp656
sba(iframe
frame
p657
(dp658
g3
F26.000000387400057
sg4
I130
sg5
g6
(g7
g8
(lp659
F325.53335223102164
aF129.21252659720173
atp660
Rp661
sba(iframe
frame
p662
(dp663
g3
F26.20000039038006
sg4
I131
sg5
g6
(g7
g8
(lp664
F326.4306105976878
aF129.65403245610688
atp665
Rp666
sba(iframe
frame
p667
(dp668
g3
F26.40000039336006
sg4
I132
sg5
g6
(g7
g8
(lp669
F327.3263223548746
aF130.09866764144124
atp670
Rp671
sba(iframe
frame
p672
(dp673
g3
F26.60000039634006
sg4
I133
sg5
g6
(g7
g8
(lp674
F328.22047658861663
aF130.54642673546527
atp675
Rp676
sba(iframe
frame
p677
(dp678
g3
F26.800000399320062
sg4
I134
sg5
g6
(g7
g8
(lp679
F329.1130624039264
aF130.99730428237552
atp680
Rp681
sba(iframe
frame
p682
(dp683
g3
F27.000000402300063
sg4
I135
sg5
g6
(g7
g8
(lp684
F330.0040689249271
aF131.45129478837123
atp685
Rp686
sba(iframe
frame
p687
(dp688
g3
F27.200000405280065
sg4
I136
sg5
g6
(g7
g8
(lp689
F330.8934852949851
aF131.90839272172119
atp690
Rp691
sba(iframe
frame
p692
(dp693
g3
F27.400000408260066
sg4
I137
sg5
g6
(g7
g8
(lp694
F331.78130067684236
aF132.36859251283116
atp695
Rp696
sba(iframe
frame
p697
(dp698
g3
F27.600000411240067
sg4
I138
sg5
g6
(g7
g8
(lp699
F332.6675042527483
aF132.83188855431175
atp700
Rp701
sba(iframe
frame
p702
(dp703
g3
F27.80000041422007
sg4
I139
sg5
g6
(g7
g8
(lp704
F333.5520852245916
aF133.29827520104672
atp705
Rp706
sba(iframe
frame
p707
(dp708
g3
F28.00000041720007
sg4
I140
sg5
g6
(g7
g8
(lp709
F334.43503281403207
aF133.7677467702618
atp710
Rp711
sba(iframe
frame
p712
(dp713
g3
F28.20000042018007
sg4
I141
sg5
g6
(g7
g8
(lp714
F335.3163362626316
aF134.24029754159392
atp715
Rp716
sba(iframe
frame
p717
(dp718
g3
F28.400000423160073
sg4
I142
sg5
g6
(g7
g8
(lp719
F336.19598483198547
aF134.71592175716086
atp720
Rp721
sba(iframe
frame
p722
(dp723
g3
F28.600000426140074
sg4
I143
sg5
g6
(g7
g8
(lp724
F337.0739678038532
aF135.1946136216315
atp725
Rp726
sba(iframe
frame
p727
(dp728
g3
F28.800000429120075
sg4
I144
sg5
g6
(g7
g8
(lp729
F337.9502744802889
aF135.67636730229637
atp730
Rp731
sba(iframe
frame
p732
(dp733
g3
F29.000000432100077
sg4
I145
sg5
g6
(g7
g8
(lp734
F338.8248941837721
aF136.16117692913872
atp735
Rp736
sba(iframe
frame
p737
(dp738
g3
F29.200000435080078
sg4
I146
sg5
g6
(g7
g8
(lp739
F339.6978162573373
aF136.64903659490605
atp740
Rp741
sba(iframe
frame
p742
(dp743
g3
F29.40000043806008
sg4
I147
sg5
g6
(g7
g8
(lp744
F340.56903006470424
aF137.13994035518215
atp745
Rp746
sba(iframe
frame
p747
(dp748
g3
F29.60000044104008
sg4
I148
sg5
g6
(g7
g8
(lp749
F341.4385249904073
aF137.6338822284594
atp750
Rp751
sba(iframe
frame
p752
(dp753
g3
F29.800000444020082
sg4
I149
sg5
g6
(g7
g8
(lp754
F342.30629043992485
aF138.13085619621182
atp755
Rp756
sba(iframe
frame
p757
(dp758
g3
F30.000000447000083
sg4
I150
sg5
g6
(g7
g8
(lp759
F343.1723158398085
aF138.63085620296823
atp760
Rp761
sba(iframe
frame
p762
(dp763
g3
F30.200000449980084
sg4
I151
sg5
g6
(g7
g8
(lp764
F344.0365906378117
aF139.13387615638615
atp765
Rp766
sba(iframe
frame
p767
(dp768
g3
F30.400000452960086
sg4
I152
sg5
g6
(g7
g8
(lp769
F344.8991043030184
aF139.63990992732604
atp770
Rp771
sba(iframe
frame
p772
(dp773
g3
F30.600000455940087
sg4
I153
sg5
g6
(g7
g8
(lp774
F345.7598463259716
aF140.1489513499259
atp775
Rp776
sba(iframe
frame
p777
(dp778
g3
F30.80000045892009
sg4
I154
sg5
g6
(g7
g8
(lp779
F346.61880621880096
aF140.66099422167648
atp780
Rp781
sba(iframe
frame
p782
(dp783
g3
F31.00000046190009
sg4
I155
sg5
g6
(g7
g8
(lp784
F347.475973515351
aF141.17603230349673
atp785
Rp786
sba(iframe
frame
p787
(dp788
g3
F31.20000046488009
sg4
I156
sg5
g6
(g7
g8
(lp789
F348.33133777130837
aF141.69405931981
atp790
Rp791
sba(iframe
frame
p792
(dp793
g3
F31.400000467860092
sg4
I157
sg5
g6
(g7
g8
(lp794
F349.1848885643293
aF142.21506895862044
atp795
Rp796
sba(iframe
frame
p797
(dp798
g3
F31.600000470840094
sg4
I158
sg5
g6
(g7
g8
(lp799
F350.03661549416637
aF142.73905487158976
atp800
Rp801
sba(iframe
frame
p802
(dp803
g3
F31.800000473820095
sg4
I159
sg5
g6
(g7
g8
(lp804
F350.88650818279547
aF143.26601067411482
atp805
Rp806
sba(iframe
frame
p807
(dp808
g3
F32.000000476800096
sg4
I160
sg5
g6
(g7
g8
(lp809
F351.73455627454206
aF143.79592994540525
atp810
Rp811
sba(iframe
frame
p812
(dp813
g3
F32.200000479780094
sg4
I161
sg5
g6
(g7
g8
(lp814
F352.58074943620744
aF144.32880622856177
atp815
Rp816
sba(iframe
frame
p817
(dp818
g3
F32.40000048276009
sg4
I162
sg5
g6
(g7
g8
(lp819
F353.4250773571947
aF144.86463303065486
atp820
Rp821
sba(iframe
frame
p822
(dp823
g3
F32.60000048574009
sg4
I163
sg5
g6
(g7
g8
(lp824
F354.26752974963426
aF145.40340382280382
atp825
Rp826
sba(iframe
frame
p827
(dp828
g3
F32.80000048872009
sg4
I164
sg5
g6
(g7
g8
(lp829
F355.1080963485093
aF145.94511204025642
atp830
Rp831
sba(iframe
frame
p832
(dp833
g3
F33.000000491700085
sg4
I165
sg5
g6
(g7
g8
(lp834
F355.94676691178074
aF146.48975108246873
atp835
Rp836
sba(iframe
frame
p837
(dp838
g3
F33.20000049468008
sg4
I166
sg5
g6
(g7
g8
(lp839
F356.78353122051215
aF147.03731431318573
atp840
Rp841
sba(iframe
frame
p842
(dp843
g3
F33.40000049766008
sg4
I167
sg5
g6
(g7
g8
(lp844
F357.61837907899417
aF147.58779506052207
atp845
Rp846
sba(iframe
frame
p847
(dp848
g3
F33.60000050064008
sg4
I168
sg5
g6
(g7
g8
(lp849
F358.45130031486883
aF148.14118661704333
atp850
Rp851
sba(iframe
frame
p852
(dp853
g3
F33.800000503620076
sg4
I169
sg5
g6
(g7
g8
(lp854
F359.2822847792534
aF148.69748223984786
atp855
Rp856
sba(iframe
frame
p857
(dp858
g3
F34.000000506600074
sg4
I170
sg5
g6
(g7
g8
(lp859
F360.11132234686414
aF149.25667515064882
atp860
Rp861
sba(iframe
frame
p862
(dp863
g3
F34.20000050958007
sg4
I171
sg5
g6
(g7
g8
(lp864
F360.93840291613964
aF149.8187585358569
atp865
Rp866
sba(iframe
frame
p867
(dp868
g3
F34.40000051256007
sg4
I172
sg5
g6
(g7
g8
(lp869
F361.76351640936383
aF150.3837255466632
atp870
Rp871
sba(iframe
frame
p872
(dp873
g3
F34.60000051554007
sg4
I173
sg5
g6
(g7
g8
(lp874
F362.5866527727889
aF150.95156929912275
atp875
Rp876
sba(iframe
frame
p877
(dp878
g3
F34.800000518520065
sg4
I174
sg5
g6
(g7
g8
(lp879
F363.4078019767577
aF151.5222828742385
atp880
Rp881
sba(iframe
frame
p882
(dp883
g3
F35.00000052150006
sg4
I175
sg5
g6
(g7
g8
(lp884
F364.22695401582604
aF152.09585931804537
atp885
Rp886
sba(iframe
frame
p887
(dp888
g3
F35.20000052448006
sg4
I176
sg5
g6
(g7
g8
(lp889
F365.04409890888456
aF152.67229164169524
atp890
Rp891
sba(iframe
frame
p892
(dp893
g3
F35.40000052746006
sg4
I177
sg5
g6
(g7
g8
(lp894
F365.8592266992803
aF153.2515728215419
atp895
Rp896
sba(iframe
frame
p897
(dp898
g3
F35.600000530440056
sg4
I178
sg5
g6
(g7
g8
(lp899
F366.6723274549381
aF153.83369579922683
atp900
Rp901
sba(iframe
frame
p902
(dp903
g3
F35.800000533420054
sg4
I179
sg5
g6
(g7
g8
(lp904
F367.4833912684815
aF154.418653481765
atp905
Rp906
sba(iframe
frame
p907
(dp908
g3
F36.00000053640005
sg4
I180
sg5
g6
(g7
g8
(lp909
F368.29240825735366
aF155.00643874163146
atp910
Rp911
sba(iframe
frame
p912
(dp913
g3
F36.20000053938005
sg4
I181
sg5
g6
(g7
g8
(lp914
F369.0993685639375
aF155.59704441684806
atp915
Rp916
sba(iframe
frame
p917
(dp918
g3
F36.40000054236005
sg4
I182
sg5
g6
(g7
g8
(lp919
F369.9042623556761
aF156.19046331107086
atp920
Rp921
sba(iframe
frame
p922
(dp923
g3
F36.600000545340045
sg4
I183
sg5
g6
(g7
g8
(lp924
F370.70707982519235
aF156.78668819367766
atp925
Rp926
sba(iframe
frame
p927
(dp928
g3
F36.80000054832004
sg4
I184
sg5
g6
(g7
g8
(lp929
F371.50781119040846
aF157.38571179985624
atp930
Rp931
sba(iframe
frame
p932
(dp933
g3
F37.00000055130004
sg4
I185
sg5
g6
(g7
g8
(lp934
F372.3064466946651
aF157.98752683069276
atp935
Rp936
sba(iframe
frame
p937
(dp938
g3
F37.20000055428004
sg4
I186
sg5
g6
(g7
g8
(lp939
F373.1029766068404
aF158.59212595326076
atp940
Rp941
sba(iframe
frame
p942
(dp943
g3
F37.400000557260036
sg4
I187
sg5
g6
(g7
g8
(lp944
F373.89739122146847
aF159.19950180071055
atp945
Rp946
sba(iframe
frame
p947
(dp948
g3
F37.600000560240034
sg4
I188
sg5
g6
(g7
g8
(lp949
F374.6896808588576
aF159.80964697235885
atp950
Rp951
sba(iframe
frame
p952
(dp953
g3
F37.80000056322003
sg4
I189
sg5
g6
(g7
g8
(lp954
F375.47983586520843
aF160.42255403377908
atp955
Rp956
sba(iframe
frame
p957
(dp958
g3
F38.00000056620003
sg4
I190
sg5
g6
(g7
g8
(lp959
F376.26784661273115
aF161.0382155168919
atp960
Rp961
sba(iframe
frame
p962
(dp963
g3
F38.20000056918003
sg4
I191
sg5
g6
(g7
g8
(lp964
F377.05370349976323
aF161.6566239200562
atp965
Rp966
sba(iframe
frame
p967
(dp968
g3
F38.400000572160025
sg4
I192
sg5
g6
(g7
g8
(lp969
F377.8373969508862
aF162.27777170816054
atp970
Rp971
sba(iframe
frame
p972
(dp973
g3
F38.60000057514002
sg4
I193
sg5
g6
(g7
g8
(lp974
F378.6189174170425
aF162.9016513127149
atp975
Rp976
sba(iframe
frame
p977
(dp978
g3
F38.80000057812002
sg4
I194
sg5
g6
(g7
g8
(lp979
F379.3982553756515
aF163.52825513194296
atp980
Rp981
sba(iframe
frame
p982
(dp983
g3
F39.00000058110002
sg4
I195
sg5
g6
(g7
g8
(lp984
F380.17540133072583
aF164.15757553087468
atp985
Rp986
sba(iframe
frame
p987
(dp988
g3
F39.200000584080016
sg4
I196
sg5
g6
(g7
g8
(lp989
F380.95034581298705
aF164.7896048414394
atp990
Rp991
sba(iframe
frame
p992
(dp993
g3
F39.40000058706001
sg4
I197
sg5
g6
(g7
g8
(lp994
F381.72307937998085
aF165.4243353625592
atp995
Rp996
sba(iframe
frame
p997
(dp998
g3
F39.60000059004001
sg4
I198
sg5
g6
(g7
g8
(lp999
F382.49359261619236
aF166.06175936024275
atp1000
Rp1001
sba(iframe
frame
p1002
(dp1003
g3
F39.80000059302001
sg4
I199
sg5
g6
(g7
g8
(lp1004
F383.2618761331606
aF166.70186906767955
atp1005
Rp1006
sba(iframe
frame
p1007
(dp1008
g3
F40.00000059600001
sg4
I200
sg5
g6
(g7
g8
(lp1009
F384.0279205695932
aF167.3446566853346
atp1010
Rp1011
sba(iframe
frame
p1012
(dp1013
g3
F40.200000598980004
sg4
I201
sg5
g6
(g7
g8
(lp1014
F384.7917165914801
aF167.9901143810434
atp1015
Rp1016
sba(iframe
frame
p1017
(dp1018
g3
F40.40000060196
sg4
I202
sg5
g6
(g7
g8
(lp1019
F385.5532548922076
aF168.6382342901074
atp1020
Rp1021
sba(iframe
frame
p1022
(dp1023
g3
F40.60000060494
sg4
I203
sg5
g6
(g7
g8
(lp1024
F386.31252619267144
aF169.28900851538978
atp1025
Rp1026
sba(iframe
frame
p1027
(dp1028
g3
F40.80000060792
sg4
I204
sg5
g6
(g7
g8
(lp1029
F387.06952124139025
aF169.94242912741177
atp1030
Rp1031
sba(iframe
frame
p1032
(dp1033
g3
F41.000000610899995
sg4
I205
sg5
g6
(g7
g8
(lp1034
F387.824230814618
aF170.59848816444915
atp1035
Rp1036
sba(iframe
frame
p1037
(dp1038
g3
F41.20000061387999
sg4
I206
sg5
g6
(g7
g8
(lp1039
F388.57664571645637
aF171.25717763262938
atp1040
Rp1041
sba(iframe
frame
p1042
(dp1043
g3
F41.40000061685999
sg4
I207
sg5
g6
(g7
g8
(lp1044
F389.32675677896697
aF171.9184895060289
atp1045
Rp1046
sba(iframe
frame
p1047
(dp1048
g3
F41.60000061983999
sg4
I208
sg5
g6
(g7
g8
(lp1049
F390.074554862283
aF172.582415726771
atp1050
Rp1051
sba(iframe
frame
p1052
(dp1053
g3
F41.80000062281999
sg4
I209
sg5
g6
(g7
g8
(lp1054
F390.82003085472047
aF173.24894820512395
atp1055
Rp1056
sba(iframe
frame
p1057
(dp1058
g3
F42.000000625799984
sg4
I210
sg5
g6
(g7
g8
(lp1059
F391.56317567288943
aF173.91807881959963
atp1060
Rp1061
sba(iframe
frame
p1062
(dp1063
g3
F42.20000062877998
sg4
I211
sg5
g6
(g7
g8
(lp1064
F392.30398026180455
aF174.5897994170524
atp1065
Rp1066
sba(iframe
frame
p1067
(dp1068
g3
F42.40000063175998
sg4
I212
sg5
g6
(g7
g8
(lp1069
F393.04243559499537
aF175.26410181277856
atp1070
Rp1071
sba(iframe
frame
p1072
(dp1073
g3
F42.60000063473998
sg4
I213
sg5
g6
(g7
g8
(lp1074
F393.7785326746165
aF175.94097779061593
atp1075
Rp1076
sba(iframe
frame
p1077
(dp1078
g3
F42.800000637719975
sg4
I214
sg5
g6
(g7
g8
(lp1079
F394.512262531557
aF176.6204191030441
atp1080
Rp1081
sba(iframe
frame
p1082
(dp1083
g3
F43.00000064069997
sg4
I215
sg5
g6
(g7
g8
(lp1084
F395.24361622554983
aF177.30241747128483
atp1085
Rp1086
sba(iframe
frame
p1087
(dp1088
g3
F43.20000064367997
sg4
I216
sg5
g6
(g7
g8
(lp1089
F395.97258484528083
aF177.986964585403
atp1090
Rp1091
sba(iframe
frame
p1092
(dp1093
g3
F43.40000064665997
sg4
I217
sg5
g6
(g7
g8
(lp1094
F396.6991595084971
aF178.6740521044078
atp1095
Rp1096
sba(iframe
frame
p1097
(dp1098
g3
F43.600000649639966
sg4
I218
sg5
g6
(g7
g8
(lp1099
F397.4233313621154
aF179.36367165635437
atp1100
Rp1101
sba(iframe
frame
p1102
(dp1103
g3
F43.800000652619964
sg4
I219
sg5
g6
(g7
g8
(lp1104
F398.14509158233
aF180.05581483844588
atp1105
Rp1106
sba(iframe
frame
p1107
(dp1108
g3
F44.00000065559996
sg4
I220
sg5
g6
(g7
g8
(lp1109
F398.8644313747201
aF180.75047321713583
atp1110
Rp1111
sba(iframe
frame
p1112
(dp1113
g3
F44.20000065857996
sg4
I221
sg5
g6
(g7
g8
(lp1114
F399.5813419743571
aF181.44763832823085
atp1115
Rp1116
sba(iframe
frame
p1117
(dp1118
g3
F44.40000066155996
sg4
I222
sg5
g6
(g7
g8
(lp1119
F400.2958146459113
aF182.1473016769938
atp1120
Rp1121
sba(iframe
frame
p1122
(dp1123
g3
F44.600000664539955
sg4
I223
sg5
g6
(g7
g8
(lp1124
F401.00784068375845
aF182.84945473824735
atp1125
Rp1126
sba(iframe
frame
p1127
(dp1128
g3
F44.80000066751995
sg4
I224
sg5
g6
(g7
g8
(lp1129
F401.71741141208565
aF183.55408895647773
atp1130
Rp1131
sba(iframe
frame
p1132
(dp1133
g3
F45.00000067049995
sg4
I225
sg5
g6
(g7
g8
(lp1134
F402.42451818499734
aF184.26119574593915
atp1135
Rp1136
sba(iframe
frame
p1137
(dp1138
g3
F45.20000067347995
sg4
I226
sg5
g6
(g7
g8
(lp1139
F403.1291523866203
aF184.97076649075825
atp1140
Rp1141
sba(iframe
frame
p1142
(dp1143
g3
F45.400000676459946
sg4
I227
sg5
g6
(g7
g8
(lp1144
F403.831305431209
aF185.68279254503918
atp1145
Rp1146
sba(iframe
frame
p1147
(dp1148
g3
F45.600000679439944
sg4
I228
sg5
g6
(g7
g8
(lp1149
F404.5309687632498
aF186.39726523296892
atp1150
Rp1151
sba(iframe
frame
p1152
(dp1153
g3
F45.80000068241994
sg4
I229
sg5
g6
(g7
g8
(lp1154
F405.22813385756564
aF187.11417584892297
atp1155
Rp1156
sba(iframe
frame
p1157
(dp1158
g3
F46.00000068539994
sg4
I230
sg5
g6
(g7
g8
(lp1159
F405.92279221941953
aF187.83351565757147
atp1160
Rp1161
sba(iframe
frame
p1162
(dp1163
g3
F46.20000068837994
sg4
I231
sg5
g6
(g7
g8
(lp1164
F406.6149353846184
aF188.5552758939856
atp1165
Rp1166
sba(iframe
frame
p1167
(dp1168
g3
F46.400000691359935
sg4
I232
sg5
g6
(g7
g8
(lp1169
F407.30455491961584
aF189.27944776374437
atp1170
Rp1171
sba(iframe
frame
p1172
(dp1173
g3
F46.60000069433993
sg4
I233
sg5
g6
(g7
g8
(lp1174
F407.99164242161527
aF190.00602244304184
atp1175
Rp1176
sba(iframe
frame
p1177
(dp1178
g3
F46.80000069731993
sg4
I234
sg5
g6
(g7
g8
(lp1179
F408.676189518672
aF190.73499107879456
atp1180
Rp1181
sba(iframe
frame
p1182
(dp1183
g3
F47.00000070029993
sg4
I235
sg5
g6
(g7
g8
(lp1184
F409.35818786979553
aF191.4663447887495
atp1185
Rp1186
sba(iframe
frame
p1187
(dp1188
g3
F47.200000703279926
sg4
I236
sg5
g6
(g7
g8
(lp1189
F410.0376291650508
aF192.2000746615922
atp1190
Rp1191
sba(iframe
frame
p1192
(dp1193
g3
F47.400000706259924
sg4
I237
sg5
g6
(g7
g8
(lp1194
F410.7145051256599
aF192.9361717570555
atp1195
Rp1196
sba(iframe
frame
p1197
(dp1198
g3
F47.60000070923992
sg4
I238
sg5
g6
(g7
g8
(lp1199
F411.3888075041026
aF193.67462710602828
atp1200
Rp1201
sba(iframe
frame
p1202
(dp1203
g3
F47.80000071221992
sg4
I239
sg5
g6
(g7
g8
(lp1204
F412.06052808421697
aF194.4154317106649
atp1205
Rp1206
sba(iframe
frame
p1207
(dp1208
g3
F48.00000071519992
sg4
I240
sg5
g6
(g7
g8
(lp1209
F412.72965868129944
aF195.1585765444948
atp1210
Rp1211
sba(iframe
frame
p1212
(dp1213
g3
F48.200000718179915
sg4
I241
sg5
g6
(g7
g8
(lp1214
F413.39619114220466
aF195.90405255253236
atp1215
Rp1216
sba(iframe
frame
p1217
(dp1218
g3
F48.40000072115991
sg4
I242
sg5
g6
(g7
g8
(lp1219
F414.06011734544467
aF196.6518506513875
atp1220
Rp1221
sba(iframe
frame
p1222
(dp1223
g3
F48.60000072413991
sg4
I243
sg5
g6
(g7
g8
(lp1224
F414.72142920128795
aF197.401961729376
atp1225
Rp1226
sba(iframe
frame
p1227
(dp1228
g3
F48.80000072711991
sg4
I244
sg5
g6
(g7
g8
(lp1229
F415.380118651858
aF198.15437664663094
atp1230
Rp1231
sba(iframe
frame
p1232
(dp1233
g3
F49.000000730099906
sg4
I245
sg5
g6
(g7
g8
(lp1234
F416.03617767123154
aF198.90908623521364
atp1235
Rp1236
sba(iframe
frame
p1237
(dp1238
g3
F49.200000733079904
sg4
I246
sg5
g6
(g7
g8
(lp1239
F416.6895982655362
aF199.66608129922568
atp1240
Rp1241
sba(iframe
frame
p1242
(dp1243
g3
F49.4000007360599
sg4
I247
sg5
g6
(g7
g8
(lp1244
F417.3403724730479
aF200.42535261492085
atp1245
Rp1246
sba(iframe
frame
p1247
(dp1248
g3
F49.6000007390399
sg4
I248
sg5
g6
(g7
g8
(lp1249
F417.9884923642882
aF201.18689093081747
atp1250
Rp1251
sba(iframe
frame
p1252
(dp1253
g3
F49.8000007420199
sg4
I249
sg5
g6
(g7
g8
(lp1254
F418.6339500421205
aF201.95068696781124
atp1255
Rp1256
sba(iframe
frame
p1257
(dp1258
g3
F50.000000744999895
sg4
I250
sg5
g6
(g7
g8
(lp1259
F419.2767376418464
aF202.71673141928818
atp1260
Rp1261
sba(iframe
frame
p1262
(dp1263
g3
F50.20000074797989
sg4
I251
sg5
g6
(g7
g8
(lp1264
F419.91684733130165
aF203.48501495123816
atp1265
Rp1266
sba(iframe
frame
p1267
(dp1268
g3
F50.40000075095989
sg4
I252
sg5
g6
(g7
g8
(lp1269
F420.55427131095144
aF204.25552820236848
atp1270
Rp1271
sba(iframe
frame
p1272
(dp1273
g3
F50.60000075393989
sg4
I253
sg5
g6
(g7
g8
(lp1274
F421.1890018139855
aF205.02826178421807
atp1275
Rp1276
sba(iframe
frame
p1277
(dp1278
g3
F50.800000756919886
sg4
I254
sg5
g6
(g7
g8
(lp1279
F421.82103110641276
aF205.80320628127183
atp1280
Rp1281
sba(iframe
frame
p1282
(dp1283
g3
F51.00000075989988
sg4
I255
sg5
g6
(g7
g8
(lp1284
F422.4503514871555
aF206.5803522510753
atp1285
Rp1286
sba(iframe
frame
p1287
(dp1288
g3
F51.20000076287988
sg4
I256
sg5
g6
(g7
g8
(lp1289
F423.07695528814327
aF207.35969022434986
atp1290
Rp1291
sba(iframe
frame
p1292
(dp1293
g3
F51.40000076585988
sg4
I257
sg5
g6
(g7
g8
(lp1294
F423.70083487440627
aF208.14121070510794
atp1295
Rp1296
sba(iframe
frame
p1297
(dp1298
g3
F51.60000076883988
sg4
I258
sg5
g6
(g7
g8
(lp1299
F424.3219826441684
aF208.92490417076883
atp1300
Rp1301
sba(iframe
frame
p1302
(dp1303
g3
F51.800000771819875
sg4
I259
sg5
g6
(g7
g8
(lp1304
F424.9403910289398
aF209.7107610722747
atp1305
Rp1306
sba(iframe
frame
p1307
(dp1308
g3
F52.00000077479987
sg4
I260
sg5
g6
(g7
g8
(lp1309
F425.55605249360934
aF210.49877183420688
atp1310
Rp1311
sba(iframe
frame
p1312
(dp1313
g3
F52.20000077777987
sg4
I261
sg5
g6
(g7
g8
(lp1314
F426.16895953653614
aF211.28892685490268
atp1315
Rp1316
sba(iframe
frame
p1317
(dp1318
g3
F52.40000078075987
sg4
I262
sg5
g6
(g7
g8
(lp1319
F426.77910468964103
aF212.08121650657222
atp1320
Rp1321
sba(iframe
frame
p1322
(dp1323
g3
F52.600000783739866
sg4
I263
sg5
g6
(g7
g8
(lp1324
F427.38648051849765
aF212.87563113541583
atp1325
Rp1326
sba(iframe
frame
p1327
(dp1328
g3
F52.80000078671986
sg4
I264
sg5
g6
(g7
g8
(lp1329
F427.991079622423
aF213.6721610617417
atp1330
Rp1331
sba(iframe
frame
p1332
(dp1333
g3
F53.00000078969986
sg4
I265
sg5
g6
(g7
g8
(lp1334
F428.5928946345676
aF214.47079658008371
atp1335
Rp1336
sba(iframe
frame
p1337
(dp1338
g3
F53.20000079267986
sg4
I266
sg5
g6
(g7
g8
(lp1339
F429.19191822200514
aF215.27152795931985
atp1340
Rp1341
sba(iframe
frame
p1342
(dp1343
g3
F53.40000079565986
sg4
I267
sg5
g6
(g7
g8
(lp1344
F429.7881430858221
aF216.07434544279067
atp1345
Rp1346
sba(iframe
frame
p1347
(dp1348
g3
F53.600000798639854
sg4
I268
sg5
g6
(g7
g8
(lp1349
F430.3815619612065
aF216.8792392484182
atp1350
Rp1351
sba(iframe
frame
p1352
(dp1353
g3
F53.80000080161985
sg4
I269
sg5
g6
(g7
g8
(lp1354
F430.97216761753634
aF217.68619956882512
atp1355
Rp1356
sba(iframe
frame
p1357
(dp1358
g3
F54.00000080459985
sg4
I270
sg5
g6
(g7
g8
(lp1359
F431.55995285846785
aF218.49521657145428
atp1360
Rp1361
sba(iframe
frame
p1362
(dp1363
g3
F54.20000080757985
sg4
I271
sg5
g6
(g7
g8
(lp1364
F432.14491052202317
aF219.30628039868853
atp1365
Rp1366
sba(iframe
frame
p1367
(dp1368
g3
F54.400000810559845
sg4
I272
sg5
g6
(g7
g8
(lp1369
F432.72703348067756
aF220.1193811679708
atp1370
Rp1371
sba(iframe
frame
p1372
(dp1373
g3
F54.60000081353984
sg4
I273
sg5
g6
(g7
g8
(lp1374
F433.3063146414463
aF220.93450897192454
atp1375
Rp1376
sba(iframe
frame
p1377
(dp1378
g3
F54.80000081651984
sg4
I274
sg5
g6
(g7
g8
(lp1379
F433.882746945971
aF221.75165387847437
atp1380
Rp1381
sba(iframe
frame
p1382
(dp1383
g3
F55.00000081949984
sg4
I275
sg5
g6
(g7
g8
(lp1384
F434.45632337060573
aF222.5708059309672
atp1385
Rp1386
sba(iframe
frame
p1387
(dp1388
g3
F55.200000822479836
sg4
I276
sg5
g6
(g7
g8
(lp1389
F435.0270369265026
aF223.39195514829348
atp1390
Rp1391
sba(iframe
frame
p1392
(dp1393
g3
F55.400000825459834
sg4
I277
sg5
g6
(g7
g8
(lp1394
F435.5948806596968
aF224.21509152500883
atp1395
Rp1396
sba(iframe
frame
p1397
(dp1398
g3
F55.60000082843983
sg4
I278
sg5
g6
(g7
g8
(lp1399
F436.1598476511914
aF225.040205031456
atp1400
Rp1401
sba(iframe
frame
p1402
(dp1403
g3
F55.80000083141983
sg4
I279
sg5
g6
(g7
g8
(lp1404
F436.72193101704175
aF225.86728561388696
atp1405
Rp1406
sba(iframe
frame
p1407
(dp1408
g3
F56.00000083439983
sg4
I280
sg5
g6
(g7
g8
(lp1409
F437.2811239084392
aF226.69632319458555
atp1410
Rp1411
sba(iframe
frame
p1412
(dp1413
g3
F56.200000837379825
sg4
I281
sg5
g6
(g7
g8
(lp1414
F437.8374195117947
aF227.52730767199014
atp1415
Rp1416
sba(iframe
frame
p1417
(dp1418
g3
F56.40000084035982
sg4
I282
sg5
g6
(g7
g8
(lp1419
F438.39081104882155
aF228.36022892081687
atp1420
Rp1421
sba(iframe
frame
p1422
(dp1423
g3
F56.60000084333982
sg4
I283
sg5
g6
(g7
g8
(lp1424
F438.94129177661836
aF229.19507679218282
atp1425
Rp1426
sba(iframe
frame
p1427
(dp1428
g3
F56.80000084631982
sg4
I284
sg5
g6
(g7
g8
(lp1429
F439.488854987751
aF230.03184111372988
atp1430
Rp1431
sba(iframe
frame
p1432
(dp1433
g3
F57.000000849299816
sg4
I285
sg5
g6
(g7
g8
(lp1434
F440.0334940103343
aF230.87051168974853
atp1435
Rp1436
sba(iframe
frame
p1437
(dp1438
g3
F57.200000852279814
sg4
I286
sg5
g6
(g7
g8
(lp1439
F440.5752022081136
aF231.71107830130217
atp1440
Rp1441
sba(iframe
frame
p1442
(dp1443
g3
F57.40000085525981
sg4
I287
sg5
g6
(g7
g8
(lp1444
F441.1139729805451
aF232.5535307063516
atp1445
Rp1446
sba(iframe
frame
p1447
(dp1448
g3
F57.60000085823981
sg4
I288
sg5
g6
(g7
g8
(lp1449
F441.6497997628768
aF233.39785863987984
atp1450
Rp1451
sba(iframe
frame
p1452
(dp1453
g3
F57.80000086121981
sg4
I289
sg5
g6
(g7
g8
(lp1454
F442.1826760262283
aF234.24405181401713
atp1455
Rp1456
sba(iframe
frame
p1457
(dp1458
g3
F58.000000864199805
sg4
I290
sg5
g6
(g7
g8
(lp1459
F442.7125952776703
aF235.09209991816638
atp1460
Rp1461
sba(iframe
frame
p1462
(dp1463
g3
F58.2000008671798
sg4
I291
sg5
g6
(g7
g8
(lp1464
F443.2395510603037
aF235.9419926191288
atp1465
Rp1466
sba(iframe
frame
p1467
(dp1468
g3
F58.4000008701598
sg4
I292
sg5
g6
(g7
g8
(lp1469
F443.7635369533385
aF236.7937195612297
atp1470
Rp1471
sba(iframe
frame
p1472
(dp1473
g3
F58.6000008731398
sg4
I293
sg5
g6
(g7
g8
(lp1474
F444.2845465721716
aF237.64727036644476
atp1475
Rp1476
sba(iframe
frame
p1477
(dp1478
g3
F58.800000876119796
sg4
I294
sg5
g6
(g7
g8
(lp1479
F444.8025735684652
aF238.50263463452652
atp1480
Rp1481
sba(iframe
frame
p1482
(dp1483
g3
F59.000000879099794
sg4
I295
sg5
g6
(g7
g8
(lp1484
F445.3176116302236
aF239.35980194313095
atp1485
Rp1486
sba(iframe
frame
p1487
(dp1488
g3
F59.20000088207979
sg4
I296
sg5
g6
(g7
g8
(lp1489
F445.8296544818703
aF240.21876184794462
atp1490
Rp1491
sba(iframe
frame
p1492
(dp1493
g3
F59.40000088505979
sg4
I297
sg5
g6
(g7
g8
(lp1494
F446.33869588432464
aF241.07950388281182
atp1495
Rp1496
sba(iframe
frame
p1497
(dp1498
g3
F59.60000088803979
sg4
I298
sg5
g6
(g7
g8
(lp1499
F446.8447296350775
aF241.9420175598622
atp1500
Rp1501
sba(iframe
frame
p1502
(dp1503
g3
F59.800000891019785
sg4
I299
sg5
g6
(g7
g8
(lp1504
F447.3477495682672
aF242.80629236963847
atp1505
Rp1506
sba(iframe
frame
p1507
(dp1508
g3
F60.00000089399978
sg4
I300
sg5
g6
(g7
g8
(lp1509
F447.8477495547544
aF243.67231778122454
atp1510
Rp1511
sba(iframe
frame
p1512
(dp1513
g3
F60.20000089697978
sg4
I301
sg5
g6
(g7
g8
(lp1514
F448.34472350219687
aF244.54008324237373
atp1515
Rp1516
sba(iframe
frame
p1517
(dp1518
g3
F60.40000089995978
sg4
I302
sg5
g6
(g7
g8
(lp1519
F448.83866535512374
aF245.4095781796374
atp1520
Rp1521
sba(iframe
frame
p1522
(dp1523
g3
F60.600000902939776
sg4
I303
sg5
g6
(g7
g8
(lp1524
F449.32956909500916
aF246.2807919984939
atp1525
Rp1526
sba(iframe
frame
p1527
(dp1528
g3
F60.800000905919774
sg4
I304
sg5
g6
(g7
g8
(lp1529
F449.81742874034586
aF247.15371408347738
atp1530
Rp1531
sba(iframe
frame
p1532
(dp1533
g3
F61.00000090889977
sg4
I305
sg5
g6
(g7
g8
(lp1534
F450.30223834671784
aF248.02833379830744
atp1535
Rp1536
sba(iframe
frame
p1537
(dp1538
g3
F61.20000091187977
sg4
I306
sg5
g6
(g7
g8
(lp1539
F450.7839920068729
aF248.90464048601856
atp1540
Rp1541
sba(iframe
frame
p1542
(dp1543
g3
F61.40000091485977
sg4
I307
sg5
g6
(g7
g8
(lp1544
F451.2626838507945
aF249.78262346908997
atp1545
Rp1546
sba(iframe
frame
p1547
(dp1548
g3
F61.600000917839765
sg4
I308
sg5
g6
(g7
g8
(lp1549
F451.73830804577335
aF250.66227204957576
atp1550
Rp1551
sba(iframe
frame
p1552
(dp1553
g3
F61.80000092081976
sg4
I309
sg5
g6
(g7
g8
(lp1554
F452.2108587964787
aF251.54357550923527
atp1555
Rp1556
sba(iframe
frame
p1557
(dp1558
g3
F62.00000092379976
sg4
I310
sg5
g6
(g7
g8
(lp1559
F452.68033034502855
aF252.42652310966363
atp1560
Rp1561
sba(iframe
frame
p1562
(dp1563
g3
F62.20000092677976
sg4
I311
sg5
g6
(g7
g8
(lp1564
F453.14671697106
aF253.31110409242268
atp1565
Rp1566
sba(iframe
frame
p1567
(dp1568
g3
F62.400000929759756
sg4
I312
sg5
g6
(g7
g8
(lp1569
F453.6100129917991
aF254.19730767917198
atp1570
Rp1571
sba(iframe
frame
p1572
(dp1573
g3
F62.60000093273975
sg4
I313
sg5
g6
(g7
g8
(lp1574
F454.07021276212987
aF255.08512307180015
atp1575
Rp1576
sba(iframe
frame
p1577
(dp1578
g3
F62.80000093571975
sg4
I314
sg5
g6
(g7
g8
(lp1579
F454.52731067466317
aF255.97453945255648
atp1580
Rp1581
sba(iframe
frame
p1582
(dp1583
g3
F63.00000093869975
sg4
I315
sg5
g6
(g7
g8
(lp1584
F454.981301159805
aF256.86554598418275
atp1585
Rp1586
sba(iframe
frame
p1587
(dp1588
g3
F63.20000094167975
sg4
I316
sg5
g6
(g7
g8
(lp1589
F455.43217868582445
aF257.75813181004526
atp1590
Rp1591
sba(iframe
frame
p1592
(dp1593
g3
F63.400000944659745
sg4
I317
sg5
g6
(g7
g8
(lp1594
F455.8799377589209
aF258.652286054267
atp1595
Rp1596
sba(iframe
frame
p1597
(dp1598
g3
F63.60000094763974
sg4
I318
sg5
g6
(g7
g8
(lp1599
F456.32457292329127
aF259.5479978218604
atp1600
Rp1601
sba(iframe
frame
p1602
(dp1603
g3
F63.80000095061974
sg4
I319
sg5
g6
(g7
g8
(lp1604
F456.7660787611962
aF260.44525619885997
atp1605
Rp1606
sba(iframe
frame
p1607
(dp1608
g3
F64.00000095359974
sg4
I320
sg5
g6
(g7
g8
(lp1609
F457.2044498930262
aF261.34405025245513
atp1610
Rp1611
sba(iframe
frame
p1612
(dp1613
g3
F64.20000095657974
sg4
I321
sg5
g6
(g7
g8
(lp1614
F457.6396809773673
aF262.2443690311237
atp1615
Rp1616
sba(iframe
frame
p1617
(dp1618
g3
F64.40000095955975
sg4
I322
sg5
g6
(g7
g8
(lp1619
F458.07176671106583
aF263.1462015647652
atp1620
Rp1621
sba(iframe
frame
p1622
(dp1623
g3
F64.60000096253975
sg4
I323
sg5
g6
(g7
g8
(lp1624
F458.5007018292934
aF264.0495368648344
atp1625
Rp1626
sba(iframe
frame
p1627
(dp1628
g3
F64.80000096551976
sg4
I324
sg5
g6
(g7
g8
(lp1629
F458.9264811056108
aF264.95436392447544
atp1630
Rp1631
sba(iframe
frame
p1632
(dp1633
g3
F65.00000096849976
sg4
I325
sg5
g6
(g7
g8
(lp1634
F459.3490993520317
aF265.86067171865585
atp1635
Rp1636
sba(iframe
frame
p1637
(dp1638
g3
F65.20000097147977
sg4
I326
sg5
g6
(g7
g8
(lp1639
F459.76855141908607
aF266.7684492043008
atp1640
Rp1641
sba(iframe
frame
p1642
(dp1643
g3
F65.40000097445977
sg4
I327
sg5
g6
(g7
g8
(lp1644
F460.1848321958826
aF267.67768532042777
atp1645
Rp1646
sba(iframe
frame
p1647
(dp1648
g3
F65.60000097743978
sg4
I328
sg5
g6
(g7
g8
(lp1649
F460.5979366101713
aF268.58836898828133
atp1650
Rp1651
sba(iframe
frame
p1652
(dp1653
g3
F65.80000098041978
sg4
I329
sg5
g6
(g7
g8
(lp1654
F461.0078596284051
aF269.500489111468
atp1655
Rp1656
sba(iframe
frame
p1657
(dp1658
g3
F66.00000098339979
sg4
I330
sg5
g6
(g7
g8
(lp1659
F461.4145962558012
aF270.4140345760917
atp1660
Rp1661
sba(iframe
frame
p1662
(dp1663
g3
F66.20000098637979
sg4
I331
sg5
g6
(g7
g8
(lp1664
F461.81814153640204
aF271.3289942508888
atp1665
Rp1666
sba(iframe
frame
p1667
(dp1668
g3
F66.4000009893598
sg4
I332
sg5
g6
(g7
g8
(lp1669
F462.21849055313555
aF272.2453569873641
atp1670
Rp1671
sba(iframe
frame
p1672
(dp1673
g3
F66.6000009923398
sg4
I333
sg5
g6
(g7
g8
(lp1674
F462.6156384278752
aF273.16311161992655
atp1675
Rp1676
sba(iframe
frame
p1677
(dp1678
g3
F66.8000009953198
sg4
I334
sg5
g6
(g7
g8
(lp1679
F463.0095803214993
aF274.0822469660252
atp1680
Rp1681
sba(iframe
frame
p1682
(dp1683
g3
F67.00000099829981
sg4
I335
sg5
g6
(g7
g8
(lp1684
F463.40031143395004
aF275.0027518262856
atp1685
Rp1686
sba(iframe
frame
p1687
(dp1688
g3
F67.20000100127982
sg4
I336
sg5
g6
(g7
g8
(lp1689
F463.787827004292
aF275.92461498464615
atp1690
Rp1691
sba(iframe
frame
p1692
(dp1693
g3
F67.40000100425982
sg4
I337
sg5
g6
(g7
g8
(lp1694
F464.17212231077013
aF276.84782520849495
atp1695
Rp1696
sba(iframe
frame
p1697
(dp1698
g3
F67.60000100723983
sg4
I338
sg5
g6
(g7
g8
(lp1699
F464.5531926708672
aF277.77237124880634
atp1700
Rp1701
sba(iframe
frame
p1702
(dp1703
g3
F67.80000101021983
sg4
I339
sg5
g6
(g7
g8
(lp1704
F464.931033441361
aF278.6982418402783
atp1705
Rp1706
sba(iframe
frame
p1707
(dp1708
g3
F68.00000101319984
sg4
I340
sg5
g6
(g7
g8
(lp1709
F465.3056400183809
aF279.6254257014695
atp1710
Rp1711
sba(iframe
frame
p1712
(dp1713
g3
F68.20000101617984
sg4
I341
sg5
g6
(g7
g8
(lp1714
F465.6770078374638
aF280.5539115349369
atp1715
Rp1716
sba(iframe
frame
p1717
(dp1718
g3
F68.40000101915984
sg4
I342
sg5
g6
(g7
g8
(lp1719
F466.0451323736099
aF281.48368802737326
atp1720
Rp1721
sba(iframe
frame
p1722
(dp1723
g3
F68.60000102213985
sg4
I343
sg5
g6
(g7
g8
(lp1724
F466.41000914133775
aF282.4147438497451
atp1725
Rp1726
sba(iframe
frame
p1727
(dp1728
g3
F68.80000102511985
sg4
I344
sg5
g6
(g7
g8
(lp1729
F466.77163369473897
aF283.34706765743067
atp1730
Rp1731
sba(iframe
frame
p1732
(dp1733
g3
F69.00000102809986
sg4
I345
sg5
g6
(g7
g8
(lp1734
F467.13000162753235
aF284.28064809035834
atp1735
Rp1736
sba(iframe
frame
p1737
(dp1738
g3
F69.20000103107986
sg4
I346
sg5
g6
(g7
g8
(lp1739
F467.4851085731176
aF285.21547377314477
atp1740
Rp1741
sba(iframe
frame
p1742
(dp1743
g3
F69.40000103405987
sg4
I347
sg5
g6
(g7
g8
(lp1744
F467.8369502046285
aF286.1515333152337
atp1745
Rp1746
sba(iframe
frame
p1747
(dp1748
g3
F69.60000103703987
sg4
I348
sg5
g6
(g7
g8
(lp1749
F468.18552223498574
aF287.08881531103464
atp1750
Rp1751
sba(iframe
frame
p1752
(dp1753
g3
F69.80000104001988
sg4
I349
sg5
g6
(g7
g8
(lp1754
F468.530820416949
aF288.02730834006195
atp1755
Rp1756
sba(iframe
frame
p1757
(dp1758
g3
F70.00000104299988
sg4
I350
sg5
g6
(g7
g8
(lp1759
F468.8728405431687
aF288.96700096707394
atp1760
Rp1761
sba(iframe
frame
p1762
(dp1763
g3
F70.20000104597989
sg4
I351
sg5
g6
(g7
g8
(lp1764
F469.21157844623747
aF289.9078817422121
atp1765
Rp1766
sba(iframe
frame
p1767
(dp1768
g3
F70.4000010489599
sg4
I352
sg5
g6
(g7
g8
(lp1769
F469.5470299987407
aF290.8499392011408
atp1770
Rp1771
sba(iframe
frame
p1772
(dp1773
g3
F70.6000010519399
sg4
I353
sg5
g6
(g7
g8
(lp1774
F469.879191113307
aF291.7931618651868
atp1775
Rp1776
sba(iframe
frame
p1777
(dp1778
g3
F70.8000010549199
sg4
I354
sg5
g6
(g7
g8
(lp1779
F470.2080577426579
aF292.7375382414793
atp1780
Rp1781
sba(iframe
frame
p1782
(dp1783
g3
F71.00000105789991
sg4
I355
sg5
g6
(g7
g8
(lp1784
F470.53362587965717
aF293.6830568230898
atp1785
Rp1786
sba(iframe
frame
p1787
(dp1788
g3
F71.20000106087991
sg4
I356
sg5
g6
(g7
g8
(lp1789
F470.85589155735966
aF294.62970608917254
atp1790
Rp1791
sba(iframe
frame
p1792
(dp1793
g3
F71.40000106385992
sg4
I357
sg5
g6
(g7
g8
(lp1794
F471.1748508490597
aF295.57747450510453
atp1795
Rp1796
sba(iframe
frame
p1797
(dp1798
g3
F71.60000106683992
sg4
I358
sg5
g6
(g7
g8
(lp1799
F471.4904998683388
aF296.5263505226264
atp1800
Rp1801
sba(iframe
frame
p1802
(dp1803
g3
F71.80000106981993
sg4
I359
sg5
g6
(g7
g8
(lp1804
F471.8028347691133
aF297.47632257998293
atp1805
Rp1806
sba(iframe
frame
p1807
(dp1808
g3
F72.00000107279993
sg4
I360
sg5
g6
(g7
g8
(lp1809
F472.1118517456808
aF298.4273791020641
atp1810
Rp1811
sba(iframe
frame
p1812
(dp1813
g3
F72.20000107577994
sg4
I361
sg5
g6
(g7
g8
(lp1814
F472.4175470327668
aF299.3795085005459
atp1815
Rp1816
sba(iframe
frame
p1817
(dp1818
g3
F72.40000107875994
sg4
I362
sg5
g6
(g7
g8
(lp1819
F472.71991690557064
aF300.33269917403186
atp1820
Rp1821
sba(iframe
frame
p1822
(dp1823
g3
F72.60000108173995
sg4
I363
sg5
g6
(g7
g8
(lp1824
F473.01895767981074
aF301.286939508194
atp1825
Rp1826
sba(iframe
frame
p1827
(dp1828
g3
F72.80000108471995
sg4
I364
sg5
g6
(g7
g8
(lp1829
F473.3146657117695
aF302.24221787591466
atp1830
Rp1831
sba(iframe
frame
p1832
(dp1833
g3
F73.00000108769996
sg4
I365
sg5
g6
(g7
g8
(lp1834
F473.6070373983378
aF303.1985226374281
atp1835
Rp1836
sba(iframe
frame
p1837
(dp1838
g3
F73.20000109067996
sg4
I366
sg5
g6
(g7
g8
(lp1839
F473.8960691770588
aF304.15584214046214
atp1840
Rp1841
sba(iframe
frame
p1842
(dp1843
g3
F73.40000109365997
sg4
I367
sg5
g6
(g7
g8
(lp1844
F474.18175752617134
aF305.1141647203805
atp1845
Rp1846
sba(iframe
frame
p1847
(dp1848
g3
F73.60000109663997
sg4
I368
sg5
g6
(g7
g8
(lp1849
F474.464098964653
aF306.07347870032453
atp1850
Rp1851
sba(iframe
frame
p1852
(dp1853
g3
F73.80000109961998
sg4
I369
sg5
g6
(g7
g8
(lp1854
F474.74309005226223
aF307.03377239135585
atp1855
Rp1856
sba(iframe
frame
p1857
(dp1858
g3
F74.00000110259998
sg4
I370
sg5
g6
(g7
g8
(lp1859
F475.0187273895807
aF307.99503409259853
atp1860
Rp1861
sba(iframe
frame
p1862
(dp1863
g3
F74.20000110557999
sg4
I371
sg5
g6
(g7
g8
(lp1864
F475.2910076180543
aF308.95725209138175
atp1865
Rp1866
sba(iframe
frame
p1867
(dp1868
g3
F74.40000110855999
sg4
I372
sg5
g6
(g7
g8
(lp1869
F475.5599274200343
aF309.9204146633825
atp1870
Rp1871
sba(iframe
frame
p1872
(dp1873
g3
F74.60000111154
sg4
I373
sg5
g6
(g7
g8
(lp1874
F475.82548351881763
aF310.88451007276836
atp1875
Rp1876
sba(iframe
frame
p1877
(dp1878
g3
F74.80000111452
sg4
I374
sg5
g6
(g7
g8
(lp1879
F476.08767267868694
aF311.8495265723408
atp1880
Rp1881
sba(iframe
frame
p1882
(dp1883
g3
F75.0000011175
sg4
I375
sg5
g6
(g7
g8
(lp1884
F476.34649170495
aF312.81545240367785
atp1885
Rp1886
sba(iframe
frame
p1887
(dp1888
g3
F75.20000112048001
sg4
I376
sg5
g6
(g7
g8
(lp1889
F476.6019374439785
aF313.7822757972778
atp1890
Rp1891
sba(iframe
frame
p1892
(dp1893
g3
F75.40000112346002
sg4
I377
sg5
g6
(g7
g8
(lp1894
F476.8540067832467
aF314.74998497270235
atp1895
Rp1896
sba(iframe
frame
p1897
(dp1898
g3
F75.60000112644002
sg4
I378
sg5
g6
(g7
g8
(lp1899
F477.1026966513691
aF315.71856813872023
atp1900
Rp1901
sba(iframe
frame
p1902
(dp1903
g3
F75.80000112942002
sg4
I379
sg5
g6
(g7
g8
(lp1904
F477.3480040181381
aF316.6880134934509
atp1905
Rp1906
sba(iframe
frame
p1907
(dp1908
g3
F76.00000113240003
sg4
I380
sg5
g6
(g7
g8
(lp1909
F477.58992589456074
aF317.6583092245083
atp1910
Rp1911
sba(iframe
frame
p1912
(dp1913
g3
F76.20000113538003
sg4
I381
sg5
g6
(g7
g8
(lp1914
F477.8284593328952
aF318.6294435091447
atp1915
Rp1916
sba(iframe
frame
p1917
(dp1918
g3
F76.40000113836004
sg4
I382
sg5
g6
(g7
g8
(lp1919
F478.0636014266867
aF319.6014045143951
atp1920
Rp1921
sba(iframe
frame
p1922
(dp1923
g3
F76.60000114134004
sg4
I383
sg5
g6
(g7
g8
(lp1924
F478.29534931080303
aF320.5741803972209
atp1925
Rp1926
sba(iframe
frame
p1927
(dp1928
g3
F76.80000114432005
sg4
I384
sg5
g6
(g7
g8
(lp1929
F478.5237001614692
aF321.54775930465473
atp1930
Rp1931
sba(iframe
frame
p1932
(dp1933
g3
F77.00000114730005
sg4
I385
sg5
g6
(g7
g8
(lp1934
F478.74865119630215
aF322.52212937394444
atp1935
Rp1936
sba(iframe
frame
p1937
(dp1938
g3
F77.20000115028006
sg4
I386
sg5
g6
(g7
g8
(lp1939
F478.97019967434437
aF323.49727873269785
atp1940
Rp1941
sba(iframe
frame
p1942
(dp1943
g3
F77.40000115326006
sg4
I387
sg5
g6
(g7
g8
(lp1944
F479.1883428960975
aF324.47319549902744
atp1945
Rp1946
sba(iframe
frame
p1947
(dp1948
g3
F77.60000115624007
sg4
I388
sg5
g6
(g7
g8
(lp1949
F479.4030782035551
aF325.449867781695
atp1950
Rp1951
sba(iframe
frame
p1952
(dp1953
g3
F77.80000115922007
sg4
I389
sg5
g6
(g7
g8
(lp1954
F479.6144029802352
aF326.42728368025666
atp1955
Rp1956
sba(iframe
frame
p1957
(dp1958
g3
F78.00000116220008
sg4
I390
sg5
g6
(g7
g8
(lp1959
F479.82231465121197
aF327.4054312852078
atp1960
Rp1961
sba(iframe
frame
p1962
(dp1963
g3
F78.20000116518008
sg4
I391
sg5
g6
(g7
g8
(lp1964
F480.0268106831473
aF328.3842986781281
atp1965
Rp1966
sba(iframe
frame
p1967
(dp1968
g3
F78.40000116816009
sg4
I392
sg5
g6
(g7
g8
(lp1969
F480.2278885843214
aF329.3638739318271
atp1970
Rp1971
sba(iframe
frame
p1972
(dp1973
g3
F78.6000011711401
sg4
I393
sg5
g6
(g7
g8
(lp1974
F480.4255459046636
aF330.34414511048897
atp1975
Rp1976
sba(iframe
frame
p1977
(dp1978
g3
F78.8000011741201
sg4
I394
sg5
g6
(g7
g8
(lp1979
F480.61978023578155
aF331.32510026981845
atp1980
Rp1981
sba(iframe
frame
p1982
(dp1983
g3
F79.0000011771001
sg4
I395
sg5
g6
(g7
g8
(lp1984
F480.8105892109913
aF332.3067274571861
atp1985
Rp1986
sba(iframe
frame
p1987
(dp1988
g3
F79.20000118008011
sg4
I396
sg5
g6
(g7
g8
(lp1989
F480.99797050534556
aF333.2890147117742
atp1990
Rp1991
sba(iframe
frame
p1992
(dp1993
g3
F79.40000118306011
sg4
I397
sg5
g6
(g7
g8
(lp1994
F481.18192183566237
aF334.27195006472203
atp1995
Rp1996
sba(iframe
frame
p1997
(dp1998
g3
F79.60000118604012
sg4
I398
sg5
g6
(g7
g8
(lp1999
F481.3624409605527
aF335.2555215392722
atp2000
Rp2001
sba(iframe
frame
p2002
(dp2003
g3
F79.80000118902012
sg4
I399
sg5
g6
(g7
g8
(lp2004
F481.5395256804479
aF336.23971715091636
atp2005
Rp2006
sba(iframe
frame
p2007
(dp2008
g3
F80.00000119200013
sg4
I400
sg5
g6
(g7
g8
(lp2009
F481.7131738376266
aF337.2245249075412
atp2010
Rp2011
sba(iframe
frame
p2012
(dp2013
g3
F80.20000119498013
sg4
I401
sg5
g6
(g7
g8
(lp2014
F481.8833833162406
aF338.20993280957464
atp2015
Rp2016
sba(iframe
frame
p2017
(dp2018
g3
F80.40000119796014
sg4
I402
sg5
g6
(g7
g8
(lp2019
F482.05015204234115
aF339.195928850132
atp2020
Rp2021
sba(iframe
frame
p2022
(dp2023
g3
F80.60000120094014
sg4
I403
sg5
g6
(g7
g8
(lp2024
F482.2134779839039
aF340.18250101516236
atp2025
Rp2026
sba(iframe
frame
p2027
(dp2028
g3
F80.80000120392015
sg4
I404
sg5
g6
(g7
g8
(lp2029
F482.3733591508537
aF341.16963728359485
atp2030
Rp2031
sba(iframe
frame
p2032
(dp2033
g3
F81.00000120690015
sg4
I405
sg5
g6
(g7
g8
(lp2034
F482.52979359508885
aF342.1573256274852
atp2035
Rp2036
sba(iframe
frame
p2037
(dp2038
g3
F81.20000120988016
sg4
I406
sg5
g6
(g7
g8
(lp2039
F482.6827794105051
aF343.1455540121623
atp2040
Rp2041
sba(iframe
frame
p2042
(dp2043
g3
F81.40000121286016
sg4
I407
sg5
g6
(g7
g8
(lp2044
F482.8323147330184
aF344.1343103963747
atp2045
Rp2046
sba(iframe
frame
p2047
(dp2048
g3
F81.60000121584017
sg4
I408
sg5
g6
(g7
g8
(lp2049
F482.97839774058804
aF345.1235827324376
atp2050
Rp2051
sba(iframe
frame
p2052
(dp2053
g3
F81.80000121882017
sg4
I409
sg5
g6
(g7
g8
(lp2054
F483.12102665323863
aF346.11335896637945
atp2055
Rp2056
sba(iframe
frame
p2057
(dp2058
g3
F82.00000122180018
sg4
I410
sg5
g6
(g7
g8
(lp2059
F483.2601997330818
aF347.1036270380888
atp2060
Rp2061
sba(iframe
frame
p2062
(dp2063
g3
F82.20000122478018
sg4
I411
sg5
g6
(g7
g8
(lp2064
F483.39591528433743
aF348.09437488146136
atp2065
Rp2066
sba(iframe
frame
p2067
(dp2068
g3
F82.40000122776019
sg4
I412
sg5
g6
(g7
g8
(lp2069
F483.5281716533543
aF349.085590424547
atp2070
Rp2071
sba(iframe
frame
p2072
(dp2073
g3
F82.60000123074019
sg4
I413
sg5
g6
(g7
g8
(lp2074
F483.6569672286303
aF350.07726158969666
atp2075
Rp2076
sba(iframe
frame
p2077
(dp2078
g3
F82.8000012337202
sg4
I414
sg5
g6
(g7
g8
(lp2079
F483.78230044083193
aF351.06937629370987
atp2080
Rp2081
sba(iframe
frame
p2082
(dp2083
g3
F83.0000012367002
sg4
I415
sg5
g6
(g7
g8
(lp2084
F483.90416976281347
aF352.06192244798166
atp2085
Rp2086
sba(iframe
frame
p2087
(dp2088
g3
F83.2000012396802
sg4
I416
sg5
g6
(g7
g8
(lp2089
F484.02257370963565
aF353.05488795865006
atp2090
Rp2091
sba(iframe
frame
p2092
(dp2093
g3
F83.40000124266021
sg4
I417
sg5
g6
(g7
g8
(lp2094
F484.13751083858375
aF354.04826072674325
atp2095
Rp2096
sba(iframe
frame
p2097
(dp2098
g3
F83.60000124564021
sg4
I418
sg5
g6
(g7
g8
(lp2099
F484.248979749185
aF355.04202864832723
atp2100
Rp2101
sba(iframe
frame
p2102
(dp2103
g3
F83.80000124862022
sg4
I419
sg5
g6
(g7
g8
(lp2104
F484.35697908322595
aF356.0361796146531
atp2105
Rp2106
sba(iframe
frame
p2107
(dp2108
g3
F84.00000125160022
sg4
I420
sg5
g6
(g7
g8
(lp2109
F484.4615075247687
aF357.03070151230474
atp2110
Rp2111
sba(iframe
frame
p2112
(dp2113
g3
F84.20000125458023
sg4
I421
sg5
g6
(g7
g8
(lp2114
F484.5625638001672
aF358.0255822233463
atp2115
Rp2116
sba(iframe
frame
p2117
(dp2118
g3
F84.40000125756023
sg4
I422
sg5
g6
(g7
g8
(lp2119
F484.6601466780825
aF359.02080962546995
atp2120
Rp2121
sba(iframe
frame
p2122
(dp2123
g3
F84.60000126054024
sg4
I423
sg5
g6
(g7
g8
(lp2124
F484.7542549694981
aF360.01637159214346
atp2125
Rp2126
sba(iframe
frame
p2127
(dp2128
g3
F84.80000126352024
sg4
I424
sg5
g6
(g7
g8
(lp2129
F484.84488752773404
aF361.0122559927581
atp2130
Rp2131
sba(iframe
frame
p2132
(dp2133
g3
F85.00000126650025
sg4
I425
sg5
g6
(g7
g8
(lp2134
F484.93204324846124
aF362.0084506927764
atp2135
Rp2136
sba(iframe
frame
p2137
(dp2138
g3
F85.20000126948025
sg4
I426
sg5
g6
(g7
g8
(lp2139
F485.01572106971463
aF363.00494355387997
atp2140
Rp2141
sba(iframe
frame
p2142
(dp2143
g3
F85.40000127246026
sg4
I427
sg5
g6
(g7
g8
(lp2144
F485.0959199719064
aF364.0017224341173
atp2145
Rp2146
sba(iframe
frame
p2147
(dp2148
g3
F85.60000127544026
sg4
I428
sg5
g6
(g7
g8
(lp2149
F485.17263897783823
aF364.99877518805204
atp2150
Rp2151
sba(iframe
frame
p2152
(dp2153
g3
F85.80000127842027
sg4
I429
sg5
g6
(g7
g8
(lp2154
F485.24587715271315
aF365.9960896669106
atp2155
Rp2156
sba(iframe
frame
p2157
(dp2158
g3
F86.00000128140027
sg4
I430
sg5
g6
(g7
g8
(lp2159
F485.3156336041471
aF366.9936537187305
atp2160
Rp2161
sba(iframe
frame
p2162
(dp2163
g3
F86.20000128438028
sg4
I431
sg5
g6
(g7
g8
(lp2164
F485.3819074821797
aF367.9914551885082
atp2165
Rp2166
sba(iframe
frame
p2167
(dp2168
g3
F86.40000128736028
sg4
I432
sg5
g6
(g7
g8
(lp2169
F485.4446979792847
aF368.9894819183473
atp2170
Rp2171
sba(iframe
frame
p2172
(dp2173
g3
F86.60000129034029
sg4
I433
sg5
g6
(g7
g8
(lp2174
F485.5040043303796
aF369.98772174760666
atp2175
Rp2176
sba(iframe
frame
p2177
(dp2178
g3
F86.80000129332029
sg4
I434
sg5
g6
(g7
g8
(lp2179
F485.55982581283524
aF370.98616251304867
atp2180
Rp2181
sba(iframe
frame
p2182
(dp2183
g3
F87.0000012963003
sg4
I435
sg5
g6
(g7
g8
(lp2184
F485.6121617464845
aF371.98479204898734
atp2185
Rp2186
sba(iframe
frame
p2187
(dp2188
g3
F87.2000012992803
sg4
I436
sg5
g6
(g7
g8
(lp2189
F485.6610114936305
aF372.98359818743654
atp2190
Rp2191
sba(iframe
frame
p2192
(dp2193
g3
F87.4000013022603
sg4
I437
sg5
g6
(g7
g8
(lp2194
F485.7063744590544
aF373.9825687582583
atp2195
Rp2196
sba(iframe
frame
p2197
(dp2198
g3
F87.60000130524031
sg4
I438
sg5
g6
(g7
g8
(lp2199
F485.74825009002285
aF374.98169158931114
atp2200
Rp2201
sba(iframe
frame
p2202
(dp2203
g3
F87.80000130822032
sg4
I439
sg5
g6
(g7
g8
(lp2204
F485.78663787629444
aF375.98095450659827
atp2205
Rp2206
sba(iframe
frame
p2207
(dp2208
g3
F88.00000131120032
sg4
I440
sg5
g6
(g7
g8
(lp2209
F485.8215373501261
aF376.98034533441603
atp2210
Rp2211
sba(iframe
frame
p2212
(dp2213
g3
F88.20000131418033
sg4
I441
sg5
g6
(g7
g8
(lp2214
F485.8529480862788
aF377.97985189550224
atp2215
Rp2216
sba(iframe
frame
p2217
(dp2218
g3
F88.40000131716033
sg4
I442
sg5
g6
(g7
g8
(lp2219
F485.88086970202255
aF378.97946201118447
atp2220
Rp2221
sba(iframe
frame
p2222
(dp2223
g3
F88.60000132014034
sg4
I443
sg5
g6
(g7
g8
(lp2224
F485.9053018571413
aF379.9791635015286
atp2225
Rp2226
sba(iframe
frame
p2227
(dp2228
g3
F88.80000132312034
sg4
I444
sg5
g6
(g7
g8
(lp2229
F485.9262442539369
aF380.9789441854871
atp2230
Rp2231
sba(iframe
frame
p2232
(dp2233
g3
F89.00000132610035
sg4
I445
sg5
g6
(g7
g8
(lp2234
F485.9436966372329
aF381.9787918810474
atp2235
Rp2236
sba(iframe
frame
p2237
(dp2238
g3
F89.20000132908035
sg4
I446
sg5
g6
(g7
g8
(lp2239
F485.9576587943775
aF382.9786944053806
atp2240
Rp2241
sba(iframe
frame
p2242
(dp2243
g3
F89.40000133206036
sg4
I447
sg5
g6
(g7
g8
(lp2244
F485.96813055524615
aF383.9786395749896
atp2245
Rp2246
sba(iframe
frame
p2247
(dp2248
g3
F89.60000133504036
sg4
I448
sg5
g6
(g7
g8
(lp2249
F485.9751117922438
aF384.97861520585764
atp2250
Rp2251
sba(iframe
frame
p2252
(dp2253
g3
F89.80000133802037
sg4
I449
sg5
g6
(g7
g8
(lp2254
F485.9786024203063
aF385.9786091135969
atp2255
Rp2256
sba(iframe
frame
p2257
(dp2258
g3
F90.00000134100037
sg4
I450
sg5
g6
(g7
g8
(lp2259
F485.9786023969014
aF386.9786091135969
atp2260
Rp2261
sba(iframe
frame
p2262
(dp2263
g3
F90.20000134398038
sg4
I451
sg5
g6
(g7
g8
(lp2264
F485.97511172202945
aF387.97860302117283
atp2265
Rp2266
sba(iframe
frame
p2267
(dp2268
g3
F90.40000134696038
sg4
I452
sg5
g6
(g7
g8
(lp2269
F485.96813043822317
aF388.9785786517141
atp2270
Rp2271
sba(iframe
frame
p2272
(dp2273
g3
F90.60000134994038
sg4
I453
sg5
g6
(g7
g8
(lp2274
F485.9576586305473
aF389.9785238208329
atp2275
Rp2276
sba(iframe
frame
p2277
(dp2278
g3
F90.80000135292039
sg4
I454
sg5
g6
(g7
g8
(lp2279
F485.94369642659757
aF390.9784263445125
atp2280
Rp2281
sba(iframe
frame
p2282
(dp2283
g3
F91.0000013559004
sg4
I455
sg5
g6
(g7
g8
(lp2284
F485.92624399649895
aF391.9782740392559
atp2285
Rp2286
sba(iframe
frame
p2287
(dp2288
g3
F91.2000013588804
sg4
I456
sg5
g6
(g7
g8
(lp2289
F485.90530155290384
aF392.97805472223405
atp2290
Rp2291
sba(iframe
frame
p2292
(dp2293
g3
F91.4000013618604
sg4
I457
sg5
g6
(g7
g8
(lp2294
F485.8808693509893
aF393.9777562114345
atp2295
Rp2296
sba(iframe
frame
p2297
(dp2298
g3
F91.60000136484041
sg4
I458
sg5
g6
(g7
g8
(lp2299
F485.8529476884541
aF394.9773663258097
atp2300
Rp2301
sba(iframe
frame
p2302
(dp2303
g3
F91.80000136782041
sg4
I459
sg5
g6
(g7
g8
(lp2304
F485.8215369055148
aF395.97687288542556
atp2305
Rp2306
sba(iframe
frame
p2307
(dp2308
g3
F92.00000137080042
sg4
I460
sg5
g6
(g7
g8
(lp2309
F485.7866373849019
aF396.9762637116097
atp2310
Rp2311
sba(iframe
frame
p2312
(dp2313
g3
F92.20000137378042
sg4
I461
sg5
g6
(g7
g8
(lp2314
F485.74824955185505
aF397.9755266270999
atp2315
Rp2316
sba(iframe
frame
p2317
(dp2318
g3
F92.40000137676043
sg4
I462
sg5
g6
(g7
g8
(lp2319
F485.7063738741179
aF398.97464945619254
atp2320
Rp2321
sba(iframe
frame
p2322
(dp2323
g3
F92.60000137974043
sg4
I463
sg5
g6
(g7
g8
(lp2324
F485.6610108619324
aF399.97362002489086
atp2325
Rp2326
sba(iframe
frame
p2327
(dp2328
g3
F92.80000138272044
sg4
I464
sg5
g6
(g7
g8
(lp2329
F485.6121610680326
aF400.9724261610534
atp2330
Rp2331
sba(iframe
frame
p2332
(dp2333
g3
F93.00000138570044
sg4
I465
sg5
g6
(g7
g8
(lp2334
F485.55982508763776
aF401.97105569454226
atp2335
Rp2336
sba(iframe
frame
p2337
(dp2338
g3
F93.20000138868045
sg4
I466
sg5
g6
(g7
g8
(lp2339
F485.50400355844533
aF402.9694964573713
atp2340
Rp2341
sba(iframe
frame
p2342
(dp2343
g3
F93.40000139166045
sg4
I467
sg5
g6
(g7
g8
(lp2344
F485.4446971606231
aF403.96773628385455
atp2345
Rp2346
sba(iframe
frame
p2347
(dp2348
g3
F93.60000139464046
sg4
I468
sg5
g6
(g7
g8
(lp2349
F485.38190661680073
aF404.9657630107544
atp2350
Rp2351
sba(iframe
frame
p2352
(dp2353
g3
F93.80000139762046
sg4
I469
sg5
g6
(g7
g8
(lp2354
F485.3156326920613
aF405.9635644774298
atp2355
Rp2356
sba(iframe
frame
p2357
(dp2358
g3
F94.00000140060047
sg4
I470
sg5
g6
(g7
g8
(lp2359
F485.2458761939316
aF406.96112852598446
atp2360
Rp2361
sba(iframe
frame
p2362
(dp2363
g3
F94.20000140358047
sg4
I471
sg5
g6
(g7
g8
(lp2364
F485.1726379723727
aF407.9584430014148
atp2365
Rp2366
sba(iframe
frame
p2367
(dp2368
g3
F94.40000140656048
sg4
I472
sg5
g6
(g7
g8
(lp2369
F485.09591891976913
aF408.95549575175835
atp2370
Rp2371
sba(iframe
frame
p2372
(dp2373
g3
F94.60000140954048
sg4
I473
sg5
g6
(g7
g8
(lp2374
F485.0157199709184
aF409.95227462824164
atp2375
Rp2376
sba(iframe
frame
p2377
(dp2378
g3
F94.80000141252049
sg4
I474
sg5
g6
(g7
g8
(lp2379
F484.9320421030194
aF410.9487674854282
atp2380
Rp2381
sba(iframe
frame
p2382
(dp2383
g3
F95.00000141550049
sg4
I475
sg5
g6
(g7
g8
(lp2384
F484.8448863356606
aF411.94496218136675
atp2385
Rp2386
sba(iframe
frame
p2387
(dp2388
g3
F95.2000014184805
sg4
I476
sg5
g6
(g7
g8
(lp2389
F484.75425373080753
aF412.9408465777389
atp2390
Rp2391
sba(iframe
frame
p2392
(dp2393
g3
F95.4000014214605
sg4
I477
sg5
g6
(g7
g8
(lp2394
F484.66014539278996
aF413.9364085400072
atp2395
Rp2396
sba(iframe
frame
p2397
(dp2398
g3
F95.6000014244405
sg4
I478
sg5
g6
(g7
g8
(lp2399
F484.56256246828826
aF414.93163593756304
atp2400
Rp2401
sba(iframe
frame
p2402
(dp2403
g3
F95.80000142742051
sg4
I479
sg5
g6
(g7
g8
(lp2404
F484.46150614631966
aF415.9265166438742
atp2405
Rp2406
sba(iframe
frame
p2407
(dp2408
g3
F96.00000143040052
sg4
I480
sg5
g6
(g7
g8
(lp2409
F484.35697765822357
aF416.9210385366329
atp2410
Rp2411
sba(iframe
frame
p2412
(dp2413
g3
F96.20000143338052
sg4
I481
sg5
g6
(g7
g8
(lp2414
F484.24897827764664
aF417.9151894979034
atp2415
Rp2416
sba(iframe
frame
p2417
(dp2418
g3
F96.40000143636053
sg4
I482
sg5
g6
(g7
g8
(lp2419
F484.13750932052733
aF418.90895741426954
atp2420
Rp2421
sba(iframe
frame
p2422
(dp2423
g3
F96.60000143934053
sg4
I483
sg5
g6
(g7
g8
(lp2424
F484.0225721450797
aF419.90233017698256
atp2425
Rp2426
sba(iframe
frame
p2427
(dp2428
g3
F96.80000144232054
sg4
I484
sg5
g6
(g7
g8
(lp2429
F483.90416815177707
aF420.8952956821085
atp2430
Rp2431
sba(iframe
frame
p2432
(dp2433
g3
F97.00000144530054
sg4
I485
sg5
g6
(g7
g8
(lp2434
F483.7822987833347
aF421.88784183067565
atp2435
Rp2436
sba(iframe
frame
p2437
(dp2438
g3
F97.20000144828055
sg4
I486
sg5
g6
(g7
g8
(lp2439
F483.65696552469245
aF422.87995652882205
atp2440
Rp2441
sba(iframe
frame
p2442
(dp2443
g3
F97.40000145126055
sg4
I487
sg5
g6
(g7
g8
(lp2444
F483.5281699029966
aF423.87162768794286
atp2445
Rp2446
sba(iframe
frame
p2447
(dp2448
g3
F97.60000145424056
sg4
I488
sg5
g6
(g7
g8
(lp2449
F483.39591348758114
aF424.86284322483755
atp2450
Rp2451
sba(iframe
frame
p2452
(dp2453
g3
F97.80000145722056
sg4
I489
sg5
g6
(g7
g8
(lp2454
F483.26019788994887
aF425.8535910618573
atp2455
Rp2456
sba(iframe
frame
p2457
(dp2458
g3
F98.00000146020056
sg4
I490
sg5
g6
(g7
g8
(lp2459
F483.1210247637515
aF426.843859127052
atp2460
Rp2461
sba(iframe
frame
p2462
(dp2463
g3
F98.20000146318057
sg4
I491
sg5
g6
(g7
g8
(lp2464
F482.9783958047698
aF427.83363535431744
atp2465
Rp2466
sba(iframe
frame
p2467
(dp2468
g3
F98.40000146616057
sg4
I492
sg5
g6
(g7
g8
(lp2469
F482.8323127508925
aF428.82290768354227
atp2470
Rp2471
sba(iframe
frame
p2472
(dp2473
g3
F98.60000146914058
sg4
I493
sg5
g6
(g7
g8
(lp2474
F482.68277738209576
aF429.811664060755
atp2475
Rp2476
sba(iframe
frame
p2477
(dp2478
g3
F98.80000147212058
sg4
I494
sg5
g6
(g7
g8
(lp2479
F482.5297915204208
aF430.79989243827083
atp2480
Rp2481
sba(iframe
frame
p2482
(dp2483
g3
F99.00000147510059
sg4
I495
sg5
g6
(g7
g8
(lp2484
F482.3733570299522
aF431.7875807748385
atp2485
Rp2486
sba(iframe
frame
p2487
(dp2488
g3
F99.2000014780806
sg4
I496
sg5
g6
(g7
g8
(lp2489
F482.21347581679487
aF432.774717035787
atp2490
Rp2491
sba(iframe
frame
p2492
(dp2493
g3
F99.4000014810606
sg4
I497
sg5
g6
(g7
g8
(lp2494
F482.05014982905095
aF433.76128919317205
atp2495
Rp2496
sba(iframe
frame
p2497
(dp2498
g3
F99.6000014840406
sg4
I498
sg5
g6
(g7
g8
(lp2499
F481.88338105679617
aF434.747285225923
atp2500
Rp2501
sba(iframe
frame
p2502
(dp2503
g3
F99.80000148702061
sg4
I499
sg5
g6
(g7
g8
(lp2504
F481.71317153205547
aF435.732693119989
atp2505
Rp2506
sba(iframe
frame
p2507
(dp2508
g3
F100.00000149000061
sg4
I500
sg5
g6
(g7
g8
(lp2509
F481.5395233287782
aF436.7175008684854
atp2510
Rp2511
sba(iframe
frame
p2512
(dp2513
g3
F100.20000149298062
sg4
I501
sg5
g6
(g7
g8
(lp2514
F481.36243856281305
aF437.70169647184025
atp2515
Rp2516
sba(iframe
frame
p2517
(dp2518
g3
F100.40000149596062
sg4
I502
sg5
g6
(g7
g8
(lp2519
F481.181919391882
aF438.6852679379404
atp2520
Rp2521
sba(iframe
frame
p2522
(dp2523
g3
F100.60000149894063
sg4
I503
sg5
g6
(g7
g8
(lp2524
F480.99796801555425
aF439.66820328227755
atp2525
Rp2526
sba(iframe
frame
p2527
(dp2528
g3
F100.40000149596062
sg4
I504
sg5
g6
(g7
g8
(lp2529
F480.8174488446232
aF440.6517747483777
atp2530
Rp2531
sba(iframe
frame
p2532
(dp2533
g3
F100.20000149298062
sg4
I505
sg5
g6
(g7
g8
(lp2534
F480.640364078658
aF441.63597035173257
atp2535
Rp2536
sba(iframe
frame
p2537
(dp2538
g3
F100.00000149000061
sg4
I506
sg5
g6
(g7
g8
(lp2539
F480.46671587538077
aF442.62077810022896
atp2540
Rp2541
sba(iframe
frame
p2542
(dp2543
g3
F99.80000148702061
sg4
I507
sg5
g6
(g7
g8
(lp2544
F480.2965063506401
aF443.60618599429495
atp2545
Rp2546
sba(iframe
frame
p2547
(dp2548
g3
F99.6000014840406
sg4
I508
sg5
g6
(g7
g8
(lp2549
F480.1297375783853
aF444.5921820270459
atp2550
Rp2551
sba(iframe
frame
p2552
(dp2553
g3
F99.4000014810606
sg4
I509
sg5
g6
(g7
g8
(lp2554
F479.96641159064137
aF445.578754184431
atp2555
Rp2556
sba(iframe
frame
p2557
(dp2558
g3
F99.2000014780806
sg4
I510
sg5
g6
(g7
g8
(lp2559
F479.806530377484
aF446.56589044537947
atp2560
Rp2561
sba(iframe
frame
p2562
(dp2563
g3
F99.00000147510059
sg4
I511
sg5
g6
(g7
g8
(lp2564
F479.6500958870154
aF447.5535787819471
atp2565
Rp2566
sba(iframe
frame
p2567
(dp2568
g3
F98.80000147212058
sg4
I512
sg5
g6
(g7
g8
(lp2569
F479.4971100253405
aF448.54180715946296
atp2570
Rp2571
sba(iframe
frame
p2572
(dp2573
g3
F98.60000146914058
sg4
I513
sg5
g6
(g7
g8
(lp2574
F479.3475746565437
aF449.5305635366757
atp2575
Rp2576
sba(iframe
frame
p2577
(dp2578
g3
F98.40000146616057
sg4
I514
sg5
g6
(g7
g8
(lp2579
F479.20149160266647
aF450.5198358659005
atp2580
Rp2581
sba(iframe
frame
p2582
(dp2583
g3
F98.20000146318057
sg4
I515
sg5
g6
(g7
g8
(lp2584
F479.05886264368473
aF451.50961209316597
atp2585
Rp2586
sba(iframe
frame
p2587
(dp2588
g3
F98.00000146020056
sg4
I516
sg5
g6
(g7
g8
(lp2589
F478.91968951748737
aF452.49988015836067
atp2590
Rp2591
sba(iframe
frame
p2592
(dp2593
g3
F97.80000145722056
sg4
I517
sg5
g6
(g7
g8
(lp2594
F478.7839739198551
aF453.4906279953804
atp2595
Rp2596
sba(iframe
frame
p2597
(dp2598
g3
F97.60000145424056
sg4
I518
sg5
g6
(g7
g8
(lp2599
F478.65171750443966
aF454.4818435322751
atp2600
Rp2601
sba(iframe
frame
p2602
(dp2603
g3
F97.40000145126055
sg4
I519
sg5
g6
(g7
g8
(lp2604
F478.5229218827438
aF455.4735146913959
atp2605
Rp2606
sba(iframe
frame
p2607
(dp2608
g3
F97.20000144828055
sg4
I520
sg5
g6
(g7
g8
(lp2609
F478.39758862410156
aF456.4656293895423
atp2610
Rp2611
sba(iframe
frame
p2612
(dp2613
g3
F97.00000144530054
sg4
I521
sg5
g6
(g7
g8
(lp2614
F478.27571925565917
aF457.45817553810946
atp2615
Rp2616
sba(iframe
frame
p2617
(dp2618
g3
F96.80000144232054
sg4
I522
sg5
g6
(g7
g8
(lp2619
F478.1573152623565
aF458.4511410432354
atp2620
Rp2621
sba(iframe
frame
p2622
(dp2623
g3
F96.60000143934053
sg4
I523
sg5
g6
(g7
g8
(lp2624
F478.0423780869089
aF459.4445138059484
atp2625
Rp2626
sba(iframe
frame
p2627
(dp2628
g3
F96.40000143636053
sg4
I524
sg5
g6
(g7
g8
(lp2629
F477.9309091297896
aF460.43828172231457
atp2630
Rp2631
sba(iframe
frame
p2632
(dp2633
g3
F96.20000143338052
sg4
I525
sg5
g6
(g7
g8
(lp2634
F477.82290974921267
aF461.43243268358503
atp2635
Rp2636
sba(iframe
frame
p2637
(dp2638
g3
F96.00000143040052
sg4
I526
sg5
g6
(g7
g8
(lp2639
F477.7183812611166
aF462.42695457634375
atp2640
Rp2641
sba(iframe
frame
p2642
(dp2643
g3
F95.80000142742051
sg4
I527
sg5
g6
(g7
g8
(lp2644
F477.617324939148
aF463.4218352826549
atp2645
Rp2646
sba(iframe
frame
p2647
(dp2648
g3
F95.6000014244405
sg4
I528
sg5
g6
(g7
g8
(lp2649
F477.5197420146463
aF464.41706268021073
atp2650
Rp2651
sba(iframe
frame
p2652
(dp2653
g3
F95.4000014214605
sg4
I529
sg5
g6
(g7
g8
(lp2654
F477.4256336766287
aF465.41262464247905
atp2655
Rp2656
sba(iframe
frame
p2657
(dp2658
g3
F95.2000014184805
sg4
I530
sg5
g6
(g7
g8
(lp2659
F477.33500107177565
aF466.4085090388512
atp2660
Rp2661
sba(iframe
frame
p2662
(dp2663
g3
F95.00000141550049
sg4
I531
sg5
g6
(g7
g8
(lp2664
F477.24784530441684
aF467.40470373478973
atp2665
Rp2666
sba(iframe
frame
p2667
(dp2668
g3
F94.80000141252049
sg4
I532
sg5
g6
(g7
g8
(lp2669
F477.16416743651786
aF468.4011965919763
atp2670
Rp2671
sba(iframe
frame
p2672
(dp2673
g3
F94.60000140954048
sg4
I533
sg5
g6
(g7
g8
(lp2674
F477.0839684876671
aF469.3979754684596
atp2675
Rp2676
sba(iframe
frame
p2677
(dp2678
g3
F94.40000140656048
sg4
I534
sg5
g6
(g7
g8
(lp2679
F477.00724943506356
aF470.39502821880313
atp2680
Rp2681
sba(iframe
frame
p2682
(dp2683
g3
F94.20000140358047
sg4
I535
sg5
g6
(g7
g8
(lp2684
F476.9340112135046
aF471.3923426942335
atp2685
Rp2686
sba(iframe
frame
p2687
(dp2688
g3
F94.00000140060047
sg4
I536
sg5
g6
(g7
g8
(lp2689
F476.86425471537495
aF472.3899067427881
atp2690
Rp2691
sba(iframe
frame
p2692
(dp2693
g3
F93.80000139762046
sg4
I537
sg5
g6
(g7
g8
(lp2694
F476.7979807906355
aF473.38770820946354
atp2695
Rp2696
sba(iframe
frame
p2697
(dp2698
g3
F93.60000139464046
sg4
I538
sg5
g6
(g7
g8
(lp2699
F476.73519024681315
aF474.3857349363634
atp2700
Rp2701
sba(iframe
frame
p2702
(dp2703
g3
F93.40000139166045
sg4
I539
sg5
g6
(g7
g8
(lp2704
F476.6758838489909
aF475.38397476284666
atp2705
Rp2706
sba(iframe
frame
p2707
(dp2708
g3
F93.20000138868045
sg4
I540
sg5
g6
(g7
g8
(lp2709
F476.6200623197985
aF476.3824155256757
atp2710
Rp2711
sba(iframe
frame
p2712
(dp2713
g3
F93.00000138570044
sg4
I541
sg5
g6
(g7
g8
(lp2714
F476.56772633940363
aF477.38104505916453
atp2715
Rp2716
sba(iframe
frame
p2717
(dp2718
g3
F92.80000138272044
sg4
I542
sg5
g6
(g7
g8
(lp2719
F476.5188765455038
aF478.3798511953271
atp2720
Rp2721
sba(iframe
frame
p2722
(dp2723
g3
F92.60000137974043
sg4
I543
sg5
g6
(g7
g8
(lp2724
F476.47351353331834
aF479.3788217640254
atp2725
Rp2726
sba(iframe
frame
p2727
(dp2728
g3
F92.40000137676043
sg4
I544
sg5
g6
(g7
g8
(lp2729
F476.4316378555812
aF480.37794459311806
atp2730
Rp2731
sba(iframe
frame
p2732
(dp2733
g3
F92.20000137378042
sg4
I545
sg5
g6
(g7
g8
(lp2734
F476.39325002253435
aF481.37720750860825
atp2735
Rp2736
sba(iframe
frame
p2737
(dp2738
g3
F92.00000137080042
sg4
I546
sg5
g6
(g7
g8
(lp2739
F476.35835050192145
aF482.3765983347924
atp2740
Rp2741
sba(iframe
frame
p2742
(dp2743
g3
F91.80000136782041
sg4
I547
sg5
g6
(g7
g8
(lp2744
F476.32693971898215
aF483.37610489440823
atp2745
Rp2746
sba(iframe
frame
p2747
(dp2748
g3
F91.60000136484041
sg4
I548
sg5
g6
(g7
g8
(lp2749
F476.2990180564469
aF484.37571500878346
atp2750
Rp2751
sba(iframe
frame
p2752
(dp2753
g3
F91.4000013618604
sg4
I549
sg5
g6
(g7
g8
(lp2754
F476.2745858545324
aF485.3754164979839
atp2755
Rp2756
sba(iframe
frame
p2757
(dp2758
g3
F91.2000013588804
sg4
I550
sg5
g6
(g7
g8
(lp2759
F476.2536434109373
aF486.37519718096206
atp2760
Rp2761
sba(iframe
frame
p2762
(dp2763
g3
F91.0000013559004
sg4
I551
sg5
g6
(g7
g8
(lp2764
F476.23619098083867
aF487.37504487570544
atp2765
Rp2766
sba(iframe
frame
p2767
(dp2768
g3
F90.80000135292039
sg4
I552
sg5
g6
(g7
g8
(lp2769
F476.2222287768889
aF488.37494739938506
atp2770
Rp2771
sba(iframe
frame
p2772
(dp2773
g3
F90.60000134994038
sg4
I553
sg5
g6
(g7
g8
(lp2774
F476.21175696921307
aF489.37489256850387
atp2775
Rp2776
sba(iframe
frame
p2777
(dp2778
g3
F90.40000134696038
sg4
I554
sg5
g6
(g7
g8
(lp2779
F476.2047756854068
aF490.3748681990451
atp2780
Rp2781
sba(iframe
frame
p2782
(dp2783
g3
F90.20000134398038
sg4
I555
sg5
g6
(g7
g8
(lp2784
F476.20128501053483
aF491.37486210662104
atp2785
Rp2786
sba(iframe
frame
p2787
(dp2788
g3
F90.00000134100037
sg4
I556
sg5
g6
(g7
g8
(lp2789
F476.20128498712995
aF492.37486210662104
atp2790
Rp2791
sba(iframe
frame
p2792
(dp2793
g3
F89.80000133802037
sg4
I557
sg5
g6
(g7
g8
(lp2794
F476.20477561519243
aF493.3748560143603
atp2795
Rp2796
sba(iframe
frame
p2797
(dp2798
g3
F89.60000133504036
sg4
I558
sg5
g6
(g7
g8
(lp2799
F476.2117568521901
aF494.37483164522837
atp2800
Rp2801
sba(iframe
frame
p2802
(dp2803
g3
F89.40000133206036
sg4
I559
sg5
g6
(g7
g8
(lp2804
F476.22222861305875
aF495.37477681483733
atp2805
Rp2806
sba(iframe
frame
p2807
(dp2808
g3
F89.20000132908035
sg4
I560
sg5
g6
(g7
g8
(lp2809
F476.23619077020334
aF496.37467933917054
atp2810
Rp2811
sba(iframe
frame
p2812
(dp2813
g3
F89.00000132610035
sg4
I561
sg5
g6
(g7
g8
(lp2814
F476.25364315349935
aF497.3745270347309
atp2815
Rp2816
sba(iframe
frame
p2817
(dp2818
g3
F88.80000132312034
sg4
I562
sg5
g6
(g7
g8
(lp2819
F476.27458555029494
aF498.37430771868935
atp2820
Rp2821
sba(iframe
frame
p2822
(dp2823
g3
F88.60000132014034
sg4
I563
sg5
g6
(g7
g8
(lp2824
F476.2990177054137
aF499.3740092090335
atp2825
Rp2826
sba(iframe
frame
p2827
(dp2828
g3
F88.40000131716033
sg4
I564
sg5
g6
(g7
g8
(lp2829
F476.32693932115745
aF500.3736193247157
atp2830
Rp2831
sba(iframe
frame
p2832
(dp2833
g3
F88.20000131418033
sg4
I565
sg5
g6
(g7
g8
(lp2834
F476.35835005731013
aF501.3731258858019
atp2835
Rp2836
sba(iframe
frame
p2837
(dp2838
g3
F88.00000131120032
sg4
I566
sg5
g6
(g7
g8
(lp2839
F476.3932495311418
aF502.3725167136197
atp2840
Rp2841
sba(iframe
frame
p2842
(dp2843
g3
F87.80000130822032
sg4
I567
sg5
g6
(g7
g8
(lp2844
F476.4316373174134
aF503.3717796309068
atp2845
Rp2846
sba(iframe
frame
p2847
(dp2848
g3
F87.60000130524031
sg4
I568
sg5
g6
(g7
g8
(lp2849
F476.4735129483818
aF504.37090246195964
atp2850
Rp2851
sba(iframe
frame
p2852
(dp2853
g3
F87.4000013022603
sg4
I569
sg5
g6
(g7
g8
(lp2854
F476.51887591380574
aF505.3698730327814
atp2855
Rp2856
sba(iframe
frame
p2857
(dp2858
g3
F87.2000012992803
sg4
I570
sg5
g6
(g7
g8
(lp2859
F476.56772566095174
aF506.3686791712306
atp2860
Rp2861
sba(iframe
frame
p2862
(dp2863
g3
F87.0000012963003
sg4
I571
sg5
g6
(g7
g8
(lp2864
F476.620061594601
aF507.3673087071693
atp2865
Rp2866
sba(iframe
frame
p2867
(dp2868
g3
F86.80000129332029
sg4
I572
sg5
g6
(g7
g8
(lp2869
F476.67588307705665
aF508.3657494726113
atp2870
Rp2871
sba(iframe
frame
p2872
(dp2873
g3
F86.60000129034029
sg4
I573
sg5
g6
(g7
g8
(lp2874
F476.73518942815156
aF509.3639893018707
atp2875
Rp2876
sba(iframe
frame
p2877
(dp2878
g3
F86.40000128736028
sg4
I574
sg5
g6
(g7
g8
(lp2879
F476.7979799252565
aF510.36201603170974
atp2880
Rp2881
sba(iframe
frame
p2882
(dp2883
g3
F86.20000128438028
sg4
I575
sg5
g6
(g7
g8
(lp2884
F476.86425380328916
aF511.35981750148744
atp2885
Rp2886
sba(iframe
frame
p2887
(dp2888
g3
F86.00000128140027
sg4
I576
sg5
g6
(g7
g8
(lp2889
F476.9340102547231
aF512.3573815533074
atp2890
Rp2891
sba(iframe
frame
p2892
(dp2893
g3
F85.80000127842027
sg4
I577
sg5
g6
(g7
g8
(lp2894
F477.007248429598
aF513.354696032166
atp2895
Rp2896
sba(iframe
frame
p2897
(dp2898
g3
F85.60000127544026
sg4
I578
sg5
g6
(g7
g8
(lp2899
F477.0839674355298
aF514.3517487861008
atp2900
Rp2901
sba(iframe
frame
p2902
(dp2903
g3
F85.40000127246026
sg4
I579
sg5
g6
(g7
g8
(lp2904
F477.1641663377216
aF515.3485276663381
atp2905
Rp2906
sba(iframe
frame
p2907
(dp2908
g3
F85.20000126948025
sg4
I580
sg5
g6
(g7
g8
(lp2909
F477.247844158975
aF516.3450205274416
atp2910
Rp2911
sba(iframe
frame
p2912
(dp2913
g3
F85.00000126650025
sg4
I581
sg5
g6
(g7
g8
(lp2914
F477.3349998797022
aF517.3412152274599
atp2915
Rp2916
sba(iframe
frame
p2917
(dp2918
g3
F84.80000126352024
sg4
I582
sg5
g6
(g7
g8
(lp2919
F477.42563243793813
aF518.3370996280745
atp2920
Rp2921
sba(iframe
frame
p2922
(dp2923
g3
F84.60000126054024
sg4
I583
sg5
g6
(g7
g8
(lp2924
F477.5197407293537
aF519.3326615947481
atp2925
Rp2926
sba(iframe
frame
p2927
(dp2928
g3
F84.40000125756023
sg4
I584
sg5
g6
(g7
g8
(lp2929
F477.61732360726904
aF520.3278889968717
atp2930
Rp2931
sba(iframe
frame
p2932
(dp2933
g3
F84.20000125458023
sg4
I585
sg5
g6
(g7
g8
(lp2934
F477.71837988266753
aF521.3227697079133
atp2935
Rp2936
sba(iframe
frame
p2937
(dp2938
g3
F84.00000125160022
sg4
I586
sg5
g6
(g7
g8
(lp2939
F477.8229083242103
aF522.317291605565
atp2940
Rp2941
sba(iframe
frame
p2942
(dp2943
g3
F83.80000124862022
sg4
I587
sg5
g6
(g7
g8
(lp2944
F477.9309076582512
aF523.3114425718909
atp2945
Rp2946
sba(iframe
frame
p2947
(dp2948
g3
F83.60000124564021
sg4
I588
sg5
g6
(g7
g8
(lp2949
F478.0423765688525
aF524.3052104934749
atp2950
Rp2951
sba(iframe
frame
p2952
(dp2953
g3
F83.40000124266021
sg4
I589
sg5
g6
(g7
g8
(lp2954
F478.1573136978006
aF525.2985832615681
atp2955
Rp2956
sba(iframe
frame
p2957
(dp2958
g3
F83.2000012396802
sg4
I590
sg5
g6
(g7
g8
(lp2959
F478.2757176446228
aF526.2915487722364
atp2960
Rp2961
sba(iframe
frame
p2962
(dp2963
g3
F83.0000012367002
sg4
I591
sg5
g6
(g7
g8
(lp2964
F478.3975869666043
aF527.2840949265083
atp2965
Rp2966
sba(iframe
frame
p2967
(dp2968
g3
F82.8000012337202
sg4
I592
sg5
g6
(g7
g8
(lp2969
F478.5229201788059
aF528.2762096305215
atp2970
Rp2971
sba(iframe
frame
p2972
(dp2973
g3
F82.60000123074019
sg4
I593
sg5
g6
(g7
g8
(lp2974
F478.6517157540819
aF529.2678807956712
atp2975
Rp2976
sba(iframe
frame
p2977
(dp2978
g3
F82.40000122776019
sg4
I594
sg5
g6
(g7
g8
(lp2979
F478.7839721230988
aF530.2590963387568
atp2980
Rp2981
sba(iframe
frame
p2982
(dp2983
g3
F82.20000122478018
sg4
I595
sg5
g6
(g7
g8
(lp2984
F478.91968767435446
aF531.2498441821293
atp2985
Rp2986
sba(iframe
frame
p2987
(dp2988
g3
F82.00000122180018
sg4
I596
sg5
g6
(g7
g8
(lp2989
F479.0588607541976
aF532.2401122538387
atp2990
Rp2991
sba(iframe
frame
p2992
(dp2993
g3
F81.80000121882017
sg4
I597
sg5
g6
(g7
g8
(lp2994
F479.2014896668482
aF533.2298884877805
atp2995
Rp2996
sba(iframe
frame
p2997
(dp2998
g3
F81.60000121584017
sg4
I598
sg5
g6
(g7
g8
(lp2999
F479.34757267441785
aF534.2191608238435
atp3000
Rp3001
sba(iframe
frame
p3002
(dp3003
g3
F81.40000121286016
sg4
I599
sg5
g6
(g7
g8
(lp3004
F479.49710799693116
aF535.207917208056
atp3005
Rp3006
sba(iframe
frame
p3007
(dp3008
g3
F81.20000120988016
sg4
I600
sg5
g6
(g7
g8
(lp3009
F479.6500938123474
aF536.196145592733
atp3010
Rp3011
sba(iframe
frame
p3012
(dp3013
g3
F81.00000120690015
sg4
I601
sg5
g6
(g7
g8
(lp3014
F479.80652825658257
aF537.1838339366234
atp3015
Rp3016
sba(iframe
frame
p3017
(dp3018
g3
F80.80000120392015
sg4
I602
sg5
g6
(g7
g8
(lp3019
F479.96640942353235
aF538.1709702050558
atp3020
Rp3021
sba(iframe
frame
p3022
(dp3023
g3
F80.60000120094014
sg4
I603
sg5
g6
(g7
g8
(lp3024
F480.1297353650951
aF539.1575423700862
atp3025
Rp3026
sba(iframe
frame
p3027
(dp3028
g3
F80.40000119796014
sg4
I604
sg5
g6
(g7
g8
(lp3029
F480.29650409119563
aF540.1435384106435
atp3030
Rp3031
sba(iframe
frame
p3032
(dp3033
g3
F80.20000119498013
sg4
I605
sg5
g6
(g7
g8
(lp3034
F480.46671356980966
aF541.1289463126769
atp3035
Rp3036
sba(iframe
frame
p3037
(dp3038
g3
F80.00000119200013
sg4
I606
sg5
g6
(g7
g8
(lp3039
F480.6403617269883
aF542.1137540693018
atp3040
Rp3041
sba(iframe
frame
p3042
(dp3043
g3
F79.80000118902012
sg4
I607
sg5
g6
(g7
g8
(lp3044
F480.81744644688354
aF543.0979496809459
atp3045
Rp3046
sba(iframe
frame
p3047
(dp3048
g3
F79.60000118604012
sg4
I608
sg5
g6
(g7
g8
(lp3049
F480.9979655717739
aF544.0815211554961
atp3050
Rp3051
sba(iframe
frame
p3052
(dp3053
g3
F79.40000118306011
sg4
I609
sg5
g6
(g7
g8
(lp3054
F481.1819169020907
aF545.064456508444
atp3055
Rp3056
sba(iframe
frame
p3057
(dp3058
g3
F79.20000118008011
sg4
I610
sg5
g6
(g7
g8
(lp3059
F481.36929819644496
aF546.046743763032
atp3060
Rp3061
sba(iframe
frame
p3062
(dp3063
g3
F79.0000011771001
sg4
I611
sg5
g6
(g7
g8
(lp3064
F481.5601071716547
aF547.0283709503998
atp3065
Rp3066
sba(iframe
frame
p3067
(dp3068
g3
F78.8000011741201
sg4
I612
sg5
g6
(g7
g8
(lp3069
F481.75434150277266
aF548.0093261097293
atp3070
Rp3071
sba(iframe
frame
p3072
(dp3073
g3
F78.6000011711401
sg4
I613
sg5
g6
(g7
g8
(lp3074
F481.9519988231148
aF548.9895972883911
atp3075
Rp3076
sba(iframe
frame
p3077
(dp3078
g3
F78.40000116816009
sg4
I614
sg5
g6
(g7
g8
(lp3079
F482.15307672428895
aF549.9691725420901
atp3080
Rp3081
sba(iframe
frame
p3082
(dp3083
g3
F78.20000116518008
sg4
I615
sg5
g6
(g7
g8
(lp3084
F482.3575727562243
aF550.9480399350105
atp3085
Rp3086
sba(iframe
frame
p3087
(dp3088
g3
F78.00000116220008
sg4
I616
sg5
g6
(g7
g8
(lp3089
F482.56548442720106
aF551.9261875399616
atp3090
Rp3091
sba(iframe
frame
p3092
(dp3093
g3
F77.80000115922007
sg4
I617
sg5
g6
(g7
g8
(lp3094
F482.77680920388116
aF552.9036034385232
atp3095
Rp3096
sba(iframe
frame
p3097
(dp3098
g3
F77.60000115624007
sg4
I618
sg5
g6
(g7
g8
(lp3099
F482.99154451133876
aF553.8802757211907
atp3100
Rp3101
sba(iframe
frame
p3102
(dp3103
g3
F77.40000115326006
sg4
I619
sg5
g6
(g7
g8
(lp3104
F483.20968773309187
aF554.8561924875203
atp3105
Rp3106
sba(iframe
frame
p3107
(dp3108
g3
F77.20000115028006
sg4
I620
sg5
g6
(g7
g8
(lp3109
F483.4312362111341
aF555.8313418462736
atp3110
Rp3111
sba(iframe
frame
p3112
(dp3113
g3
F77.00000114730005
sg4
I621
sg5
g6
(g7
g8
(lp3114
F483.65618724596703
aF556.8057119155633
atp3115
Rp3116
sba(iframe
frame
p3117
(dp3118
g3
F76.80000114432005
sg4
I622
sg5
g6
(g7
g8
(lp3119
F483.8845380966332
aF557.779290822997
atp3120
Rp3121
sba(iframe
frame
p3122
(dp3123
g3
F76.60000114134004
sg4
I623
sg5
g6
(g7
g8
(lp3124
F484.1162859807495
aF558.7520667058229
atp3125
Rp3126
sba(iframe
frame
p3127
(dp3128
g3
F76.40000113836004
sg4
I624
sg5
g6
(g7
g8
(lp3129
F484.35142807454105
aF559.7240277110733
atp3130
Rp3131
sba(iframe
frame
p3132
(dp3133
g3
F76.20000113538003
sg4
I625
sg5
g6
(g7
g8
(lp3134
F484.5899615128755
aF560.6951619957098
atp3135
Rp3136
sba(iframe
frame
p3137
(dp3138
g3
F76.00000113240003
sg4
I626
sg5
g6
(g7
g8
(lp3139
F484.8318833892981
aF561.6654577267672
atp3140
Rp3141
sba(iframe
frame
p3142
(dp3143
g3
F75.80000112942002
sg4
I627
sg5
g6
(g7
g8
(lp3144
F485.0771907560671
aF562.6349030814978
atp3145
Rp3146
sba(iframe
frame
p3147
(dp3148
g3
F75.60000112644002
sg4
I628
sg5
g6
(g7
g8
(lp3149
F485.32588062418955
aF563.6034862475157
atp3150
Rp3151
sba(iframe
frame
p3152
(dp3153
g3
F75.40000112346002
sg4
I629
sg5
g6
(g7
g8
(lp3154
F485.57794996345774
aF564.5711954229403
atp3155
Rp3156
sba(iframe
frame
p3157
(dp3158
g3
F75.20000112048001
sg4
I630
sg5
g6
(g7
g8
(lp3159
F485.83339570248626
aF565.5380188165402
atp3160
Rp3161
sba(iframe
frame
p3162
(dp3163
g3
F75.0000011175
sg4
I631
sg5
g6
(g7
g8
(lp3164
F486.0922147287493
aF566.5039446478773
atp3165
Rp3166
sba(iframe
frame
p3167
(dp3168
g3
F74.80000111452
sg4
I632
sg5
g6
(g7
g8
(lp3169
F486.3544038886186
aF567.4689611474498
atp3170
Rp3171
sba(iframe
frame
p3172
(dp3173
g3
F74.60000111154
sg4
I633
sg5
g6
(g7
g8
(lp3174
F486.61995998740196
aF568.4330565568357
atp3175
Rp3176
sba(iframe
frame
p3177
(dp3178
g3
F74.40000110855999
sg4
I634
sg5
g6
(g7
g8
(lp3179
F486.8888797893819
aF569.3962191288364
atp3180
Rp3181
sba(iframe
frame
p3182
(dp3183
g3
F74.20000110557999
sg4
I635
sg5
g6
(g7
g8
(lp3184
F487.16116001785554
aF570.3584371276196
atp3185
Rp3186
sba(iframe
frame
p3187
(dp3188
g3
F74.00000110259998
sg4
I636
sg5
g6
(g7
g8
(lp3189
F487.436797355174
aF571.3196988288623
atp3190
Rp3191
sba(iframe
frame
p3192
(dp3193
g3
F73.80000109961998
sg4
I637
sg5
g6
(g7
g8
(lp3194
F487.71578844278326
aF572.2799925198937
atp3195
Rp3196
sba(iframe
frame
p3197
(dp3198
g3
F73.60000109663997
sg4
I638
sg5
g6
(g7
g8
(lp3199
F487.9981298812649
aF573.2393064998378
atp3200
Rp3201
sba(iframe
frame
p3202
(dp3203
g3
F73.40000109365997
sg4
I639
sg5
g6
(g7
g8
(lp3204
F488.28381823037745
aF574.1976290797561
atp3205
Rp3206
sba(iframe
frame
p3207
(dp3208
g3
F73.20000109067996
sg4
I640
sg5
g6
(g7
g8
(lp3209
F488.57285000909843
aF575.1549485827902
atp3210
Rp3211
sba(iframe
frame
p3212
(dp3213
g3
F73.00000108769996
sg4
I641
sg5
g6
(g7
g8
(lp3214
F488.8652216956667
aF576.1112533443036
atp3215
Rp3216
sba(iframe
frame
p3217
(dp3218
g3
F72.80000108471995
sg4
I642
sg5
g6
(g7
g8
(lp3219
F489.1609297276255
aF577.0665317120242
atp3220
Rp3221
sba(iframe
frame
p3222
(dp3223
g3
F72.60000108173995
sg4
I643
sg5
g6
(g7
g8
(lp3224
F489.4599705018656
aF578.0207720461864
atp3225
Rp3226
sba(iframe
frame
p3227
(dp3228
g3
F72.40000107875994
sg4
I644
sg5
g6
(g7
g8
(lp3229
F489.76234037466946
aF578.9739627196723
atp3230
Rp3231
sba(iframe
frame
p3232
(dp3233
g3
F72.20000107577994
sg4
I645
sg5
g6
(g7
g8
(lp3234
F490.06803566175546
aF579.9260921181541
atp3235
Rp3236
sba(iframe
frame
p3237
(dp3238
g3
F72.00000107279993
sg4
I646
sg5
g6
(g7
g8
(lp3239
F490.37705263832294
aF580.8771486402352
atp3240
Rp3241
sba(iframe
frame
p3242
(dp3243
g3
F71.80000106981993
sg4
I647
sg5
g6
(g7
g8
(lp3244
F490.6893875390974
aF581.8271206975917
atp3245
Rp3246
sba(iframe
frame
p3247
(dp3248
g3
F71.60000106683992
sg4
I648
sg5
g6
(g7
g8
(lp3249
F491.00503655837656
aF582.7759967151135
atp3250
Rp3251
sba(iframe
frame
p3252
(dp3253
g3
F71.40000106385992
sg4
I649
sg5
g6
(g7
g8
(lp3254
F491.3239958500766
aF583.7237651310454
atp3255
Rp3256
sba(iframe
frame
p3257
(dp3258
g3
F71.20000106087991
sg4
I650
sg5
g6
(g7
g8
(lp3259
F491.6462615277791
aF584.6704143971282
atp3260
Rp3261
sba(iframe
frame
p3262
(dp3263
g3
F71.00000105789991
sg4
I651
sg5
g6
(g7
g8
(lp3264
F491.97182966477834
aF585.6159329787388
atp3265
Rp3266
sba(iframe
frame
p3267
(dp3268
g3
F70.8000010549199
sg4
I652
sg5
g6
(g7
g8
(lp3269
F492.30069629412924
aF586.5603093550313
atp3270
Rp3271
sba(iframe
frame
p3272
(dp3273
g3
F70.6000010519399
sg4
I653
sg5
g6
(g7
g8
(lp3274
F492.63285740869554
aF587.5035320190774
atp3275
Rp3276
sba(iframe
frame
p3277
(dp3278
g3
F70.4000010489599
sg4
I654
sg5
g6
(g7
g8
(lp3279
F492.9683089611988
aF588.4455894780061
atp3280
Rp3281
sba(iframe
frame
p3282
(dp3283
g3
F70.20000104597989
sg4
I655
sg5
g6
(g7
g8
(lp3284
F493.30704686426753
aF589.3864702531442
atp3285
Rp3286
sba(iframe
frame
p3287
(dp3288
g3
F70.00000104299988
sg4
I656
sg5
g6
(g7
g8
(lp3289
F493.64906699048726
aF590.3261628801562
atp3290
Rp3291
sba(iframe
frame
p3292
(dp3293
g3
F69.80000104001988
sg4
I657
sg5
g6
(g7
g8
(lp3294
F493.9943651724505
aF591.2646559091835
atp3295
Rp3296
sba(iframe
frame
p3297
(dp3298
g3
F69.60000103703987
sg4
I658
sg5
g6
(g7
g8
(lp3299
F494.3429372028077
aF592.2019379049844
atp3300
Rp3301
sba(iframe
frame
p3302
(dp3303
g3
F69.40000103405987
sg4
I659
sg5
g6
(g7
g8
(lp3304
F494.69477883431864
aF593.1379974470734
atp3305
Rp3306
sba(iframe
frame
p3307
(dp3308
g3
F69.20000103107986
sg4
I660
sg5
g6
(g7
g8
(lp3309
F495.0498857799039
aF594.0728231298599
atp3310
Rp3311
sba(iframe
frame
p3312
(dp3313
g3
F69.00000102809986
sg4
I661
sg5
g6
(g7
g8
(lp3314
F495.4082537126973
aF595.0064035627876
atp3315
Rp3316
sba(iframe
frame
p3317
(dp3318
g3
F68.80000102511985
sg4
I662
sg5
g6
(g7
g8
(lp3319
F495.7698782660985
aF595.9387273704732
atp3320
Rp3321
sba(iframe
frame
p3322
(dp3323
g3
F68.60000102213985
sg4
I663
sg5
g6
(g7
g8
(lp3324
F496.13475503382637
aF596.869783192845
atp3325
Rp3326
sba(iframe
frame
p3327
(dp3328
g3
F68.40000101915984
sg4
I664
sg5
g6
(g7
g8
(lp3329
F496.50287956997244
aF597.7995596852813
atp3330
Rp3331
sba(iframe
frame
p3332
(dp3333
g3
F68.20000101617984
sg4
I665
sg5
g6
(g7
g8
(lp3334
F496.8742473890553
aF598.7280455187487
atp3335
Rp3336
sba(iframe
frame
p3337
(dp3338
g3
F68.00000101319984
sg4
I666
sg5
g6
(g7
g8
(lp3339
F497.2488539660752
aF599.6552293799399
atp3340
Rp3341
sba(iframe
frame
p3342
(dp3343
g3
F67.80000101021983
sg4
I667
sg5
g6
(g7
g8
(lp3344
F497.62669473656905
aF600.5810999714118
atp3345
Rp3346
sba(iframe
frame
p3347
(dp3348
g3
F67.60000100723983
sg4
I668
sg5
g6
(g7
g8
(lp3349
F498.0077650966661
aF601.5056460117232
atp3350
Rp3351
sba(iframe
frame
p3352
(dp3353
g3
F67.40000100425982
sg4
I669
sg5
g6
(g7
g8
(lp3354
F498.3920604031442
aF602.428856235572
atp3355
Rp3356
sba(iframe
frame
p3357
(dp3358
g3
F67.20000100127982
sg4
I670
sg5
g6
(g7
g8
(lp3359
F498.7795759734862
aF603.3507193939325
atp3360
Rp3361
sba(iframe
frame
p3362
(dp3363
g3
F67.00000099829981
sg4
I671
sg5
g6
(g7
g8
(lp3364
F499.17030708593694
aF604.2712242541929
atp3365
Rp3366
sba(iframe
frame
p3367
(dp3368
g3
F66.8000009953198
sg4
I672
sg5
g6
(g7
g8
(lp3369
F499.56424897956106
aF605.1903596002916
atp3370
Rp3371
sba(iframe
frame
p3372
(dp3373
g3
F66.6000009923398
sg4
I673
sg5
g6
(g7
g8
(lp3374
F499.9613968543007
aF606.108114232854
atp3375
Rp3376
sba(iframe
frame
p3377
(dp3378
g3
F66.4000009893598
sg4
I674
sg5
g6
(g7
g8
(lp3379
F500.3617458710342
aF607.0244769693293
atp3380
Rp3381
sba(iframe
frame
p3382
(dp3383
g3
F66.20000098637979
sg4
I675
sg5
g6
(g7
g8
(lp3384
F500.76529115163504
aF607.9394366441263
atp3385
Rp3386
sba(iframe
frame
p3387
(dp3388
g3
F66.00000098339979
sg4
I676
sg5
g6
(g7
g8
(lp3389
F501.17202777903117
aF608.85298210875
atp3390
Rp3391
sba(iframe
frame
p3392
(dp3393
g3
F65.80000098041978
sg4
I677
sg5
g6
(g7
g8
(lp3394
F501.58195079726494
aF609.7651022319367
atp3395
Rp3396
sba(iframe
frame
p3397
(dp3398
g3
F65.60000097743978
sg4
I678
sg5
g6
(g7
g8
(lp3399
F501.9950552115536
aF610.6757858997902
atp3400
Rp3401
sba(iframe
frame
p3402
(dp3403
g3
F65.40000097445977
sg4
I679
sg5
g6
(g7
g8
(lp3404
F502.4113359883502
aF611.5850220159172
atp3405
Rp3406
sba(iframe
frame
p3407
(dp3408
g3
F65.20000097147977
sg4
I680
sg5
g6
(g7
g8
(lp3409
F502.8307880554045
aF612.4927995015621
atp3410
Rp3411
sba(iframe
frame
p3412
(dp3413
g3
F65.00000096849976
sg4
I681
sg5
g6
(g7
g8
(lp3414
F503.25340630182546
aF613.3991072957425
atp3415
Rp3416
sba(iframe
frame
p3417
(dp3418
g3
F64.80000096551976
sg4
I682
sg5
g6
(g7
g8
(lp3419
F503.67918557814284
aF614.3039343553836
atp3420
Rp3421
sba(iframe
frame
p3422
(dp3423
g3
F64.60000096253975
sg4
I683
sg5
g6
(g7
g8
(lp3424
F504.1081206963704
aF615.2072696554528
atp3425
Rp3426
sba(iframe
frame
p3427
(dp3428
g3
F64.40000095955975
sg4
I684
sg5
g6
(g7
g8
(lp3429
F504.54020643006896
aF616.1091021890943
atp3430
Rp3431
sba(iframe
frame
p3432
(dp3433
g3
F64.20000095657974
sg4
I685
sg5
g6
(g7
g8
(lp3434
F504.97543751441003
aF617.0094209677629
atp3435
Rp3436
sba(iframe
frame
p3437
(dp3438
g3
F64.00000095359974
sg4
I686
sg5
g6
(g7
g8
(lp3439
F505.41380864624006
aF617.9082150213582
atp3440
Rp3441
sba(iframe
frame
p3442
(dp3443
g3
F63.80000095061974
sg4
I687
sg5
g6
(g7
g8
(lp3444
F505.85531448414497
aF618.8054733983577
atp3445
Rp3446
sba(iframe
frame
p3447
(dp3448
g3
F63.60000094763974
sg4
I688
sg5
g6
(g7
g8
(lp3449
F506.29994964851534
aF619.7011851659511
atp3450
Rp3451
sba(iframe
frame
p3452
(dp3453
g3
F63.400000944659745
sg4
I689
sg5
g6
(g7
g8
(lp3454
F506.7477087216118
aF620.5953394101729
atp3455
Rp3456
sba(iframe
frame
p3457
(dp3458
g3
F63.20000094167975
sg4
I690
sg5
g6
(g7
g8
(lp3459
F507.1985862476312
aF621.4879252360354
atp3460
Rp3461
sba(iframe
frame
p3462
(dp3463
g3
F63.00000093869975
sg4
I691
sg5
g6
(g7
g8
(lp3464
F507.65257673277307
aF622.3789317676617
atp3465
Rp3466
sba(iframe
frame
p3467
(dp3468
g3
F62.80000093571975
sg4
I692
sg5
g6
(g7
g8
(lp3469
F508.10967464530637
aF623.268348148418
atp3470
Rp3471
sba(iframe
frame
p3472
(dp3473
g3
F62.60000093273975
sg4
I693
sg5
g6
(g7
g8
(lp3474
F508.5698744156371
aF624.1561635410461
atp3475
Rp3476
sba(iframe
frame
p3477
(dp3478
g3
F62.400000929759756
sg4
I694
sg5
g6
(g7
g8
(lp3479
F509.0331704363762
aF625.0423671277954
atp3480
Rp3481
sba(iframe
frame
p3482
(dp3483
g3
F62.20000092677976
sg4
I695
sg5
g6
(g7
g8
(lp3484
F509.4995570624077
aF625.9269481105545
atp3485
Rp3486
sba(iframe
frame
p3487
(dp3488
g3
F62.00000092379976
sg4
I696
sg5
g6
(g7
g8
(lp3489
F509.96902861095754
aF626.8098957109828
atp3490
Rp3491
sba(iframe
frame
p3492
(dp3493
g3
F61.80000092081976
sg4
I697
sg5
g6
(g7
g8
(lp3494
F510.4415793616629
aF627.6911991706423
atp3495
Rp3496
sba(iframe
frame
p3497
(dp3498
g3
F61.600000917839765
sg4
I698
sg5
g6
(g7
g8
(lp3499
F510.91720355664177
aF628.5708477511281
atp3500
Rp3501
sba(iframe
frame
p3502
(dp3503
g3
F61.40000091485977
sg4
I699
sg5
g6
(g7
g8
(lp3504
F511.39589540056335
aF629.4488307341995
atp3505
Rp3506
sba(iframe
frame
p3507
(dp3508
g3
F61.20000091187977
sg4
I700
sg5
g6
(g7
g8
(lp3509
F511.8776490607184
aF630.3251374219107
atp3510
Rp3511
sba(iframe
frame
p3512
(dp3513
g3
F61.00000090889977
sg4
I701
sg5
g6
(g7
g8
(lp3514
F512.3624586670904
aF631.1997571367407
atp3515
Rp3516
sba(iframe
frame
p3517
(dp3518
g3
F60.800000905919774
sg4
I702
sg5
g6
(g7
g8
(lp3519
F512.8503183124271
aF632.0726792217242
atp3520
Rp3521
sba(iframe
frame
p3522
(dp3523
g3
F60.600000902939776
sg4
I703
sg5
g6
(g7
g8
(lp3524
F513.3412220523126
aF632.9438930405807
atp3525
Rp3526
sba(iframe
frame
p3527
(dp3528
g3
F60.40000089995978
sg4
I704
sg5
g6
(g7
g8
(lp3529
F513.8351639052394
aF633.8133879778444
atp3530
Rp3531
sba(iframe
frame
p3532
(dp3533
g3
F60.20000089697978
sg4
I705
sg5
g6
(g7
g8
(lp3534
F514.3321378526819
aF634.6811534389935
atp3535
Rp3536
sba(iframe
frame
p3537
(dp3538
g3
F60.00000089399978
sg4
I706
sg5
g6
(g7
g8
(lp3539
F514.832137839169
aF635.5471788505796
atp3540
Rp3541
sba(iframe
frame
p3542
(dp3543
g3
F59.800000891019785
sg4
I707
sg5
g6
(g7
g8
(lp3544
F515.3351577723587
aF636.4114536603558
atp3545
Rp3546
sba(iframe
frame
p3547
(dp3548
g3
F59.60000088803979
sg4
I708
sg5
g6
(g7
g8
(lp3549
F515.8411915231115
aF637.2739673374062
atp3550
Rp3551
sba(iframe
frame
p3552
(dp3553
g3
F59.40000088505979
sg4
I709
sg5
g6
(g7
g8
(lp3554
F516.3502329255658
aF638.1347093722735
atp3555
Rp3556
sba(iframe
frame
p3557
(dp3558
g3
F59.20000088207979
sg4
I710
sg5
g6
(g7
g8
(lp3559
F516.8622757772125
aF638.9936692770872
atp3560
Rp3561
sba(iframe
frame
p3562
(dp3563
g3
F59.000000879099794
sg4
I711
sg5
g6
(g7
g8
(lp3564
F517.3773138389708
aF639.8508365856916
atp3565
Rp3566
sba(iframe
frame
p3567
(dp3568
g3
F58.800000876119796
sg4
I712
sg5
g6
(g7
g8
(lp3569
F517.8953408352645
aF640.7062008537733
atp3570
Rp3571
sba(iframe
frame
p3572
(dp3573
g3
F58.6000008731398
sg4
I713
sg5
g6
(g7
g8
(lp3574
F518.4163504540977
aF641.5597516589884
atp3575
Rp3576
sba(iframe
frame
p3577
(dp3578
g3
F58.4000008701598
sg4
I714
sg5
g6
(g7
g8
(lp3579
F518.9403363471325
aF642.4114786010892
atp3580
Rp3581
sba(iframe
frame
p3582
(dp3583
g3
F58.2000008671798
sg4
I715
sg5
g6
(g7
g8
(lp3584
F519.467292129766
aF643.2613713020517
atp3585
Rp3586
sba(iframe
frame
p3587
(dp3588
g3
F58.000000864199805
sg4
I716
sg5
g6
(g7
g8
(lp3589
F519.997211381208
aF644.1094194062009
atp3590
Rp3591
sba(iframe
frame
p3592
(dp3593
g3
F57.80000086121981
sg4
I717
sg5
g6
(g7
g8
(lp3594
F520.5300876445594
aF644.9556125803382
atp3595
Rp3596
sba(iframe
frame
p3597
(dp3598
g3
F57.60000085823981
sg4
I718
sg5
g6
(g7
g8
(lp3599
F521.0659144268911
aF645.7999405138664
atp3600
Rp3601
sba.