(lp0
(iframe
frame
p1
(dp2
S'tick'
p3
I0
sS'target_angle'
p4
I0
sba(iframe
frame
p5
(dp6
g3
I1
sg4
F-90.0
sba(iframe
frame
p7
(dp8
g3
I2
sg4
F90.0
sba(iframe
frame
p9
(dp10
g3
I3
sg4
F90.0
sba(iframe
frame
p11
(dp12
g3
I4
sg4
F90.0
sba(iframe
frame
p13
(dp14
g3
I5
sg4
F90.0
sba(iframe
frame
p15
(dp16
g3
I6
sg4
F90.0
sba(iframe
frame
p17
(dp18
g3
I7
sg4
F90.0
sba(iframe
frame
p19
(dp20
g3
I8
sg4
F90.0
sba(iframe
frame
p21
(dp22
g3
I9
sg4
F90.0
sba(iframe
frame
p23
(dp24
g3
I10
sg4
F90.0
sba(iframe
frame
p25
(dp26
g3
I11
sg4
F90.0
sba(iframe
frame
p27
(dp28
g3
I12
sg4
F90.0
sba(iframe
frame
p29
(dp30
g3
I13
sg4
F90.0
sba(iframe
frame
p31
(dp32
g3
I14
sg4
F90.0
sba(iframe
frame
p33
(dp34
g3
I15
sg4
F90.0
sba(iframe
frame
p35
(dp36
g3
I16
sg4
F90.0
sba(iframe
frame
p37
(dp38
g3
I17
sg4
F90.0
sba(iframe
frame
p39
(dp40
g3
I18
sg4
F90.0
sba(iframe
frame
p41
(dp42
g3
I19
sg4
F90.0
sba(iframe
frame
p43
(dp44
g3
I20
sg4
F90.0
sba(iframe
frame
p45
(dp46
g3
I21
sg4
F90.0
sba(iframe
frame
p47
(dp48
g3
I22
sg4
F90.0
sba(iframe
frame
p49
(dp50
g3
I23
sg4
F90.0
sba(iframe
frame
p51
(dp52
g3
I24
sg4
F90.0
sba(iframe
frame
p53
(dp54
g3
I25
sg4
F90.0
sba(iframe
frame
p55
(dp56
g3
I26
sg4
F90.0
sba(iframe
frame
p57
(dp58
g3
I27
sg4
F90.0
sba(iframe
frame
p59
(dp60
g3
I28
sg4
F90.0
sba(iframe
frame
p61
(dp62
g3
I29
sg4
F90.0
sba(iframe
frame
p63
(dp64
g3
I30
sg4
F90.0
sba(iframe
frame
p65
(dp66
g3
I31
sg4
F90.0
sba(iframe
frame
p67
(dp68
g3
I32
sg4
F90.0
sba(iframe
frame
p69
(dp70
g3
I33
sg4
F90.0
sba(iframe
frame
p71
(dp72
g3
I34
sg4
F90.0
sba(iframe
frame
p73
(dp74
g3
I35
sg4
F90.0
sba(iframe
frame
p75
(dp76
g3
I36
sg4
F90.0
sba(iframe
frame
p77
(dp78
g3
I37
sg4
F90.0
sba(iframe
frame
p79
(dp80
g3
I38
sg4
F90.0
sba(iframe
frame
p81
(dp82
g3
I39
sg4
F90.0
sba(iframe
frame
p83
(dp84
g3
I40
sg4
F90.0
sba(iframe
frame
p85
(dp86
g3
I41
sg4
F90.0
sba(iframe
frame
p87
(dp88
g3
I42
sg4
F90.0
sba(iframe
frame
p89
(dp90
g3
I43
sg4
F90.0
sba(iframe
frame
p91
(dp92
g3
I44
sg4
F90.0
sba(iframe
frame
p93
(dp94
g3
I45
sg4
F90.0
sba(iframe
frame
p95
(dp96
g3
I46
sg4
F90.0
sba(iframe
frame
p97
(dp98
g3
I47
sg4
F90.0
sba(iframe
frame
p99
(dp100
g3
I48
sg4
F90.0
sba(iframe
frame
p101
(dp102
g3
I49
sg4
F90.0
sba(iframe
frame
p103
(dp104
g3
I50
sg4
F90.0
sba(iframe
frame
p105
(dp106
g3
I51
sg4
F90.0
sba(iframe
frame
p107
(dp108
g3
I52
sg4
F90.0
sba(iframe
frame
p109
(dp110
g3
I53
sg4
F90.0
sba(iframe
frame
p111
(dp112
g3
I54
sg4
F90.0
sba(iframe
frame
p113
(dp114
g3
I55
sg4
F90.0
sba(iframe
frame
p115
(dp116
g3
I56
sg4
F90.0
sba(iframe
frame
p117
(dp118
g3
I57
sg4
F90.0
sba(iframe
frame
p119
(dp120
g3
I58
sg4
F90.0
sba(iframe
frame
p121
(dp122
g3
I59
sg4
F90.0
sba(iframe
frame
p123
(dp124
g3
I60
sg4
F90.0
sba(iframe
frame
p125
(dp126
g3
I61
sg4
F90.0
sba(iframe
frame
p127
(dp128
g3
I62
sg4
F90.0
sba(iframe
frame
p129
(dp130
g3
I63
sg4
F90.0
sba(iframe
frame
p131
(dp132
g3
I64
sg4
F90.0
sba(iframe
frame
p133
(dp134
g3
I65
sg4
F90.0
sba(iframe
frame
p135
(dp136
g3
I66
sg4
F90.0
sba(iframe
frame
p137
(dp138
g3
I67
sg4
F90.0
sba(iframe
frame
p139
(dp140
g3
I68
sg4
F90.0
sba(iframe
frame
p141
(dp142
g3
I69
sg4
F90.0
sba(iframe
frame
p143
(dp144
g3
I70
sg4
F90.0
sba(iframe
frame
p145
(dp146
g3
I71
sg4
F90.0
sba(iframe
frame
p147
(dp148
g3
I72
sg4
F90.0
sba(iframe
frame
p149
(dp150
g3
I73
sg4
F90.0
sba(iframe
frame
p151
(dp152
g3
I74
sg4
F90.0
sba(iframe
frame
p153
(dp154
g3
I75
sg4
F90.0
sba(iframe
frame
p155
(dp156
g3
I76
sg4
F90.0
sba(iframe
frame
p157
(dp158
g3
I77
sg4
F90.0
sba(iframe
frame
p159
(dp160
g3
I78
sg4
F90.0
sba(iframe
frame
p161
(dp162
g3
I79
sg4
F90.0
sba(iframe
frame
p163
(dp164
g3
I80
sg4
F90.0
sba(iframe
frame
p165
(dp166
g3
I81
sg4
F90.0
sba(iframe
frame
p167
(dp168
g3
I82
sg4
F90.0
sba(iframe
frame
p169
(dp170
g3
I83
sg4
F90.0
sba(iframe
frame
p171
(dp172
g3
I84
sg4
F90.0
sba(iframe
frame
p173
(dp174
g3
I85
sg4
F90.0
sba(iframe
frame
p175
(dp176
g3
I86
sg4
F90.0
sba(iframe
frame
p177
(dp178
g3
I87
sg4
F90.0
sba(iframe
frame
p179
(dp180
g3
I88
sg4
F90.0
sba(iframe
frame
p181
(dp182
g3
I89
sg4
F90.0
sba(iframe
frame
p183
(dp184
g3
I90
sg4
F90.0
sba(iframe
frame
p185
(dp186
g3
I91
sg4
F90.0
sba(iframe
frame
p187
(dp188
g3
I92
sg4
F90.0
sba(iframe
frame
p189
(dp190
g3
I93
sg4
F90.0
sba(iframe
frame
p191
(dp192
g3
I94
sg4
F90.0
sba(iframe
frame
p193
(dp194
g3
I95
sg4
F90.0
sba(iframe
frame
p195
(dp196
g3
I96
sg4
F90.0
sba(iframe
frame
p197
(dp198
g3
I97
sg4
F90.0
sba(iframe
frame
p199
(dp200
g3
I98
sg4
F90.0
sba(iframe
frame
p201
(dp202
g3
I99
sg4
F90.0
sba(iframe
frame
p203
(dp204
g3
I100
sg4
F90.0
sba(iframe
frame
p205
(dp206
g3
I101
sg4
F90.0
sba(iframe
frame
p207
(dp208
g3
I102
sg4
F90.0
sba(iframe
frame
p209
(dp210
g3
I103
sg4
F90.0
sba(iframe
frame
p211
(dp212
g3
I104
sg4
F90.0
sba(iframe
frame
p213
(dp214
g3
I105
sg4
F90.0
sba(iframe
frame
p215
(dp216
g3
I106
sg4
F90.0
sba(iframe
frame
p217
(dp218
g3
I107
sg4
F90.0
sba(iframe
frame
p219
(dp220
g3
I108
sg4
F90.0
sba(iframe
frame
p221
(dp222
g3
I109
sg4
F90.0
sba(iframe
frame
p223
(dp224
g3
I110
sg4
F90.0
sba(iframe
frame
p225
(dp226
g3
I111
sg4
F90.0
sba(iframe
frame
p227
(dp228
g3
I112
sg4
F90.0
sba(iframe
frame
p229
(dp230
g3
I113
sg4
F90.0
sba(iframe
frame
p231
(dp232
g3
I114
sg4
F90.0
sba(iframe
frame
p233
(dp234
g3
I115
sg4
F90.0
sba(iframe
frame
p235
(dp236
g3
I116
sg4
F90.0
sba(iframe
frame
p237
(dp238
g3
I117
sg4
F90.0
sba(iframe
frame
p239
(dp240
g3
I118
sg4
F90.0
sba(iframe
frame
p241
(dp242
g3
I119
sg4
F90.0
sba(iframe
frame
p243
(dp244
g3
I120
sg4
F90.0
sba(iframe
frame
p245
(dp246
g3
I121
sg4
F90.0
sba(iframe
frame
p247
(dp248
g3
I122
sg4
F90.0
sba(iframe
frame
p249
(dp250
g3
I123
sg4
F90.0
sba(iframe
frame
p251
(dp252
g3
I124
sg4
F90.0
sba(iframe
frame
p253
(dp254
g3
I125
sg4
F90.0
sba(iframe
frame
p255
(dp256
g3
I126
sg4
F90.0
sba(iframe
frame
p257
(dp258
g3
I127
sg4
F90.0
sba(iframe
frame
p259
(dp260
g3
I128
sg4
F90.0
sba(iframe
frame
p261
(dp262
g3
I129
sg4
F90.0
sba(iframe
frame
p263
(dp264
g3
I130
sg4
F90.0
sba(iframe
frame
p265
(dp266
g3
I131
sg4
F90.0
sba(iframe
frame
p267
(dp268
g3
I132
sg4
F90.0
sba(iframe
frame
p269
(dp270
g3
I133
sg4
F90.0
sba(iframe
frame
p271
(dp272
g3
I134
sg4
F90.0
sba(iframe
frame
p273
(dp274
g3
I135
sg4
F90.0
sba(iframe
frame
p275
(dp276
g3
I136
sg4
F90.0
sba(iframe
frame
p277
(dp278
g3
I137
sg4
F90.0
sba(iframe
frame
p279
(dp280
g3
I138
sg4
F90.0
sba(iframe
frame
p281
(dp282
g3
I139
sg4
F90.0
sba(iframe
frame
p283
(dp284
g3
I140
sg4
F90.0
sba(iframe
frame
p285
(dp286
g3
I141
sg4
F90.0
sba(iframe
frame
p287
(dp288
g3
I142
sg4
F90.0
sba(iframe
frame
p289
(dp290
g3
I143
sg4
F90.0
sba(iframe
frame
p291
(dp292
g3
I144
sg4
F90.0
sba(iframe
frame
p293
(dp294
g3
I145
sg4
F90.0
sba(iframe
frame
p295
(dp296
g3
I146
sg4
F90.0
sba(iframe
frame
p297
(dp298
g3
I147
sg4
F90.0
sba(iframe
frame
p299
(dp300
g3
I148
sg4
F90.0
sba(iframe
frame
p301
(dp302
g3
I149
sg4
F90.0
sba(iframe
frame
p303
(dp304
g3
I150
sg4
F90.0
sba(iframe
frame
p305
(dp306
g3
I151
sg4
F90.0
sba(iframe
frame
p307
(dp308
g3
I152
sg4
F90.0
sba(iframe
frame
p309
(dp310
g3
I153
sg4
F90.0
sba(iframe
frame
p311
(dp312
g3
I154
sg4
F90.0
sba(iframe
frame
p313
(dp314
g3
I155
sg4
F90.0
sba(iframe
frame
p315
(dp316
g3
I156
sg4
F90.0
sba(iframe
frame
p317
(dp318
g3
I157
sg4
F90.0
sba(iframe
frame
p319
(dp320
g3
I158
sg4
F90.0
sba(iframe
frame
p321
(dp322
g3
I159
sg4
F90.0
sba(iframe
frame
p323
(dp324
g3
I160
sg4
F90.0
sba(iframe
frame
p325
(dp326
g3
I161
sg4
F90.0
sba(iframe
frame
p327
(dp328
g3
I162
sg4
F90.0
sba(iframe
frame
p329
(dp330
g3
I163
sg4
F90.0
sba(iframe
frame
p331
(dp332
g3
I164
sg4
F90.0
sba(iframe
frame
p333
(dp334
g3
I165
sg4
F90.0
sba(iframe
frame
p335
(dp336
g3
I166
sg4
F90.0
sba(iframe
frame
p337
(dp338
g3
I167
sg4
F90.0
sba(iframe
frame
p339
(dp340
g3
I168
sg4
F90.0
sba(iframe
frame
p341
(dp342
g3
I169
sg4
F90.0
sba(iframe
frame
p343
(dp344
g3
I170
sg4
F90.0
sba(iframe
frame
p345
(dp346
g3
I171
sg4
F90.0
sba(iframe
frame
p347
(dp348
g3
I172
sg4
F90.0
sba(iframe
frame
p349
(dp350
g3
I173
sg4
F90.0
sba(iframe
frame
p351
(dp352
g3
I174
sg4
F90.0
sba(iframe
frame
p353
(dp354
g3
I175
sg4
F90.0
sba(iframe
frame
p355
(dp356
g3
I176
sg4
F90.0
sba(iframe
frame
p357
(dp358
g3
I177
sg4
F90.0
sba(iframe
frame
p359
(dp360
g3
I178
sg4
F90.0
sba(iframe
frame
p361
(dp362
g3
I179
sg4
F90.0
sba(iframe
frame
p363
(dp364
g3
I180
sg4
F90.0
sba(iframe
frame
p365
(dp366
g3
I181
sg4
F90.0
sba(iframe
frame
p367
(dp368
g3
I182
sg4
F90.0
sba(iframe
frame
p369
(dp370
g3
I183
sg4
F90.0
sba(iframe
frame
p371
(dp372
g3
I184
sg4
F90.0
sba(iframe
frame
p373
(dp374
g3
I185
sg4
F90.0
sba(iframe
frame
p375
(dp376
g3
I186
sg4
F90.0
sba(iframe
frame
p377
(dp378
g3
I187
sg4
F-90.0
sba(iframe
frame
p379
(dp380
g3
I188
sg4
F-90.0
sba(iframe
frame
p381
(dp382
g3
I189
sg4
F-90.0
sba(iframe
frame
p383
(dp384
g3
I190
sg4
F-90.0
sba(iframe
frame
p385
(dp386
g3
I191
sg4
F-90.0
sba(iframe
frame
p387
(dp388
g3
I192
sg4
F-90.0
sba(iframe
frame
p389
(dp390
g3
I193
sg4
F-90.0
sba(iframe
frame
p391
(dp392
g3
I194
sg4
F-90.0
sba(iframe
frame
p393
(dp394
g3
I195
sg4
F-90.0
sba(iframe
frame
p395
(dp396
g3
I196
sg4
F-90.0
sba(iframe
frame
p397
(dp398
g3
I197
sg4
F-90.0
sba(iframe
frame
p399
(dp400
g3
I198
sg4
F-90.0
sba(iframe
frame
p401
(dp402
g3
I199
sg4
F-90.0
sba(iframe
frame
p403
(dp404
g3
I200
sg4
F-90.0
sba(iframe
frame
p405
(dp406
g3
I201
sg4
F-90.0
sba(iframe
frame
p407
(dp408
g3
I202
sg4
F-90.0
sba(iframe
frame
p409
(dp410
g3
I203
sg4
F-90.0
sba(iframe
frame
p411
(dp412
g3
I204
sg4
F-90.0
sba(iframe
frame
p413
(dp414
g3
I205
sg4
F-90.0
sba(iframe
frame
p415
(dp416
g3
I206
sg4
F-90.0
sba(iframe
frame
p417
(dp418
g3
I207
sg4
F-90.0
sba(iframe
frame
p419
(dp420
g3
I208
sg4
F-90.0
sba(iframe
frame
p421
(dp422
g3
I209
sg4
F-90.0
sba(iframe
frame
p423
(dp424
g3
I210
sg4
F-90.0
sba(iframe
frame
p425
(dp426
g3
I211
sg4
F-90.0
sba(iframe
frame
p427
(dp428
g3
I212
sg4
F-90.0
sba(iframe
frame
p429
(dp430
g3
I213
sg4
F-90.0
sba(iframe
frame
p431
(dp432
g3
I214
sg4
F-90.0
sba(iframe
frame
p433
(dp434
g3
I215
sg4
F-90.0
sba(iframe
frame
p435
(dp436
g3
I216
sg4
F-90.0
sba(iframe
frame
p437
(dp438
g3
I217
sg4
F-90.0
sba(iframe
frame
p439
(dp440
g3
I218
sg4
F-90.0
sba(iframe
frame
p441
(dp442
g3
I219
sg4
F-90.0
sba(iframe
frame
p443
(dp444
g3
I220
sg4
F-90.0
sba(iframe
frame
p445
(dp446
g3
I221
sg4
F-90.0
sba(iframe
frame
p447
(dp448
g3
I222
sg4
F-90.0
sba(iframe
frame
p449
(dp450
g3
I223
sg4
F-90.0
sba(iframe
frame
p451
(dp452
g3
I224
sg4
F-90.0
sba(iframe
frame
p453
(dp454
g3
I225
sg4
F-90.0
sba(iframe
frame
p455
(dp456
g3
I226
sg4
F-90.0
sba(iframe
frame
p457
(dp458
g3
I227
sg4
F-90.0
sba(iframe
frame
p459
(dp460
g3
I228
sg4
F-90.0
sba(iframe
frame
p461
(dp462
g3
I229
sg4
F-90.0
sba(iframe
frame
p463
(dp464
g3
I230
sg4
F-90.0
sba(iframe
frame
p465
(dp466
g3
I231
sg4
F-90.0
sba(iframe
frame
p467
(dp468
g3
I232
sg4
F-90.0
sba(iframe
frame
p469
(dp470
g3
I233
sg4
F-90.0
sba(iframe
frame
p471
(dp472
g3
I234
sg4
F-90.0
sba(iframe
frame
p473
(dp474
g3
I235
sg4
F-90.0
sba(iframe
frame
p475
(dp476
g3
I236
sg4
F-90.0
sba(iframe
frame
p477
(dp478
g3
I237
sg4
F-90.0
sba(iframe
frame
p479
(dp480
g3
I238
sg4
F-90.0
sba(iframe
frame
p481
(dp482
g3
I239
sg4
F-90.0
sba(iframe
frame
p483
(dp484
g3
I240
sg4
F-90.0
sba(iframe
frame
p485
(dp486
g3
I241
sg4
F-90.0
sba(iframe
frame
p487
(dp488
g3
I242
sg4
F-90.0
sba(iframe
frame
p489
(dp490
g3
I243
sg4
F-90.0
sba(iframe
frame
p491
(dp492
g3
I244
sg4
F-90.0
sba(iframe
frame
p493
(dp494
g3
I245
sg4
F-90.0
sba(iframe
frame
p495
(dp496
g3
I246
sg4
F-90.0
sba(iframe
frame
p497
(dp498
g3
I247
sg4
F-90.0
sba(iframe
frame
p499
(dp500
g3
I248
sg4
F-90.0
sba(iframe
frame
p501
(dp502
g3
I249
sg4
F-90.0
sba(iframe
frame
p503
(dp504
g3
I250
sg4
F-90.0
sba(iframe
frame
p505
(dp506
g3
I251
sg4
F-90.0
sba(iframe
frame
p507
(dp508
g3
I252
sg4
F-90.0
sba(iframe
frame
p509
(dp510
g3
I253
sg4
F-90.0
sba(iframe
frame
p511
(dp512
g3
I254
sg4
F-90.0
sba(iframe
frame
p513
(dp514
g3
I255
sg4
F-90.0
sba(iframe
frame
p515
(dp516
g3
I256
sg4
F-90.0
sba(iframe
frame
p517
(dp518
g3
I257
sg4
F-90.0
sba(iframe
frame
p519
(dp520
g3
I258
sg4
F-90.0
sba(iframe
frame
p521
(dp522
g3
I259
sg4
F-90.0
sba(iframe
frame
p523
(dp524
g3
I260
sg4
F-90.0
sba(iframe
frame
p525
(dp526
g3
I261
sg4
F-90.0
sba(iframe
frame
p527
(dp528
g3
I262
sg4
F-90.0
sba(iframe
frame
p529
(dp530
g3
I263
sg4
F-90.0
sba(iframe
frame
p531
(dp532
g3
I264
sg4
F-90.0
sba(iframe
frame
p533
(dp534
g3
I265
sg4
F-90.0
sba(iframe
frame
p535
(dp536
g3
I266
sg4
F-90.0
sba(iframe
frame
p537
(dp538
g3
I267
sg4
F-90.0
sba(iframe
frame
p539
(dp540
g3
I268
sg4
F-90.0
sba(iframe
frame
p541
(dp542
g3
I269
sg4
F-90.0
sba(iframe
frame
p543
(dp544
g3
I270
sg4
F-90.0
sba(iframe
frame
p545
(dp546
g3
I271
sg4
F-90.0
sba(iframe
frame
p547
(dp548
g3
I272
sg4
F-90.0
sba(iframe
frame
p549
(dp550
g3
I273
sg4
F-90.0
sba(iframe
frame
p551
(dp552
g3
I274
sg4
F-90.0
sba(iframe
frame
p553
(dp554
g3
I275
sg4
F-90.0
sba(iframe
frame
p555
(dp556
g3
I276
sg4
F-90.0
sba(iframe
frame
p557
(dp558
g3
I277
sg4
F-90.0
sba(iframe
frame
p559
(dp560
g3
I278
sg4
F-90.0
sba(iframe
frame
p561
(dp562
g3
I279
sg4
F-90.0
sba(iframe
frame
p563
(dp564
g3
I280
sg4
F-90.0
sba(iframe
frame
p565
(dp566
g3
I281
sg4
F-90.0
sba(iframe
frame
p567
(dp568
g3
I282
sg4
F-90.0
sba(iframe
frame
p569
(dp570
g3
I283
sg4
F-90.0
sba(iframe
frame
p571
(dp572
g3
I284
sg4
F90.0
sba(iframe
frame
p573
(dp574
g3
I285
sg4
F90.0
sba(iframe
frame
p575
(dp576
g3
I286
sg4
F-90.0
sba(iframe
frame
p577
(dp578
g3
I287
sg4
F90.0
sba(iframe
frame
p579
(dp580
g3
I288
sg4
F90.0
sba(iframe
frame
p581
(dp582
g3
I289
sg4
F-90.0
sba(iframe
frame
p583
(dp584
g3
I290
sg4
F90.0
sba(iframe
frame
p585
(dp586
g3
I291
sg4
F90.0
sba(iframe
frame
p587
(dp588
g3
I292
sg4
F-90.0
sba(iframe
frame
p589
(dp590
g3
I293
sg4
F90.0
sba(iframe
frame
p591
(dp592
g3
I294
sg4
F90.0
sba(iframe
frame
p593
(dp594
g3
I295
sg4
F-90.0
sba(iframe
frame
p595
(dp596
g3
I296
sg4
F90.0
sba(iframe
frame
p597
(dp598
g3
I297
sg4
F90.0
sba(iframe
frame
p599
(dp600
g3
I298
sg4
F-90.0
sba(iframe
frame
p601
(dp602
g3
I299
sg4
F90.0
sba(iframe
frame
p603
(dp604
g3
I300
sg4
F90.0
sba(iframe
frame
p605
(dp606
g3
I301
sg4
F-90.0
sba(iframe
frame
p607
(dp608
g3
I302
sg4
F90.0
sba(iframe
frame
p609
(dp610
g3
I303
sg4
F90.0
sba(iframe
frame
p611
(dp612
g3
I304
sg4
F-90.0
sba(iframe
frame
p613
(dp614
g3
I305
sg4
F90.0
sba(iframe
frame
p615
(dp616
g3
I306
sg4
F90.0
sba(iframe
frame
p617
(dp618
g3
I307
sg4
F-90.0
sba(iframe
frame
p619
(dp620
g3
I308
sg4
F90.0
sba(iframe
frame
p621
(dp622
g3
I309
sg4
F90.0
sba(iframe
frame
p623
(dp624
g3
I310
sg4
F-90.0
sba(iframe
frame
p625
(dp626
g3
I311
sg4
F90.0
sba(iframe
frame
p627
(dp628
g3
I312
sg4
F-90.0
sba(iframe
frame
p629
(dp630
g3
I313
sg4
F90.0
sba(iframe
frame
p631
(dp632
g3
I314
sg4
F90.0
sba(iframe
frame
p633
(dp634
g3
I315
sg4
F-90.0
sba(iframe
frame
p635
(dp636
g3
I316
sg4
F90.0
sba(iframe
frame
p637
(dp638
g3
I317
sg4
F90.0
sba(iframe
frame
p639
(dp640
g3
I318
sg4
F-90.0
sba(iframe
frame
p641
(dp642
g3
I319
sg4
F90.0
sba(iframe
frame
p643
(dp644
g3
I320
sg4
F-90.0
sba(iframe
frame
p645
(dp646
g3
I321
sg4
F90.0
sba(iframe
frame
p647
(dp648
g3
I322
sg4
F90.0
sba(iframe
frame
p649
(dp650
g3
I323
sg4
F-90.0
sba(iframe
frame
p651
(dp652
g3
I324
sg4
F90.0
sba(iframe
frame
p653
(dp654
g3
I325
sg4
F-90.0
sba(iframe
frame
p655
(dp656
g3
I326
sg4
F90.0
sba(iframe
frame
p657
(dp658
g3
I327
sg4
F90.0
sba(iframe
frame
p659
(dp660
g3
I328
sg4
F-90.0
sba(iframe
frame
p661
(dp662
g3
I329
sg4
F90.0
sba(iframe
frame
p663
(dp664
g3
I330
sg4
F-90.0
sba(iframe
frame
p665
(dp666
g3
I331
sg4
F90.0
sba(iframe
frame
p667
(dp668
g3
I332
sg4
F90.0
sba(iframe
frame
p669
(dp670
g3
I333
sg4
F-90.0
sba(iframe
frame
p671
(dp672
g3
I334
sg4
F90.0
sba(iframe
frame
p673
(dp674
g3
I335
sg4
F-90.0
sba(iframe
frame
p675
(dp676
g3
I336
sg4
F90.0
sba(iframe
frame
p677
(dp678
g3
I337
sg4
F-90.0
sba(iframe
frame
p679
(dp680
g3
I338
sg4
F90.0
sba(iframe
frame
p681
(dp682
g3
I339
sg4
F90.0
sba(iframe
frame
p683
(dp684
g3
I340
sg4
F-90.0
sba(iframe
frame
p685
(dp686
g3
I341
sg4
F90.0
sba(iframe
frame
p687
(dp688
g3
I342
sg4
F-90.0
sba(iframe
frame
p689
(dp690
g3
I343
sg4
F90.0
sba(iframe
frame
p691
(dp692
g3
I344
sg4
F-90.0
sba(iframe
frame
p693
(dp694
g3
I345
sg4
F90.0
sba(iframe
frame
p695
(dp696
g3
I346
sg4
F90.0
sba(iframe
frame
p697
(dp698
g3
I347
sg4
F-90.0
sba(iframe
frame
p699
(dp700
g3
I348
sg4
F90.0
sba(iframe
frame
p701
(dp702
g3
I349
sg4
F-90.0
sba(iframe
frame
p703
(dp704
g3
I350
sg4
F90.0
sba(iframe
frame
p705
(dp706
g3
I351
sg4
F-90.0
sba(iframe
frame
p707
(dp708
g3
I352
sg4
F90.0
sba(iframe
frame
p709
(dp710
g3
I353
sg4
F90.0
sba(iframe
frame
p711
(dp712
g3
I354
sg4
F-90.0
sba(iframe
frame
p713
(dp714
g3
I355
sg4
F90.0
sba(iframe
frame
p715
(dp716
g3
I356
sg4
F-90.0
sba(iframe
frame
p717
(dp718
g3
I357
sg4
F90.0
sba(iframe
frame
p719
(dp720
g3
I358
sg4
F-90.0
sba(iframe
frame
p721
(dp722
g3
I359
sg4
F90.0
sba(iframe
frame
p723
(dp724
g3
I360
sg4
F-90.0
sba(iframe
frame
p725
(dp726
g3
I361
sg4
F90.0
sba(iframe
frame
p727
(dp728
g3
I362
sg4
F90.0
sba(iframe
frame
p729
(dp730
g3
I363
sg4
F-90.0
sba(iframe
frame
p731
(dp732
g3
I364
sg4
F90.0
sba(iframe
frame
p733
(dp734
g3
I365
sg4
F-90.0
sba(iframe
frame
p735
(dp736
g3
I366
sg4
F90.0
sba(iframe
frame
p737
(dp738
g3
I367
sg4
F-90.0
sba(iframe
frame
p739
(dp740
g3
I368
sg4
F90.0
sba(iframe
frame
p741
(dp742
g3
I369
sg4
F-90.0
sba(iframe
frame
p743
(dp744
g3
I370
sg4
F90.0
sba(iframe
frame
p745
(dp746
g3
I371
sg4
F-90.0
sba(iframe
frame
p747
(dp748
g3
I372
sg4
F90.0
sba(iframe
frame
p749
(dp750
g3
I373
sg4
F90.0
sba(iframe
frame
p751
(dp752
g3
I374
sg4
F-90.0
sba(iframe
frame
p753
(dp754
g3
I375
sg4
F90.0
sba(iframe
frame
p755
(dp756
g3
I376
sg4
F-90.0
sba(iframe
frame
p757
(dp758
g3
I377
sg4
F90.0
sba(iframe
frame
p759
(dp760
g3
I378
sg4
F-90.0
sba(iframe
frame
p761
(dp762
g3
I379
sg4
F90.0
sba(iframe
frame
p763
(dp764
g3
I380
sg4
F-90.0
sba(iframe
frame
p765
(dp766
g3
I381
sg4
F90.0
sba(iframe
frame
p767
(dp768
g3
I382
sg4
F-90.0
sba(iframe
frame
p769
(dp770
g3
I383
sg4
F90.0
sba(iframe
frame
p771
(dp772
g3
I384
sg4
F-90.0
sba(iframe
frame
p773
(dp774
g3
I385
sg4
F90.0
sba(iframe
frame
p775
(dp776
g3
I386
sg4
F90.0
sba(iframe
frame
p777
(dp778
g3
I387
sg4
F-90.0
sba(iframe
frame
p779
(dp780
g3
I388
sg4
F90.0
sba(iframe
frame
p781
(dp782
g3
I389
sg4
F-90.0
sba(iframe
frame
p783
(dp784
g3
I390
sg4
F90.0
sba(iframe
frame
p785
(dp786
g3
I391
sg4
F-90.0
sba(iframe
frame
p787
(dp788
g3
I392
sg4
F90.0
sba(iframe
frame
p789
(dp790
g3
I393
sg4
F-90.0
sba(iframe
frame
p791
(dp792
g3
I394
sg4
F90.0
sba(iframe
frame
p793
(dp794
g3
I395
sg4
F-90.0
sba(iframe
frame
p795
(dp796
g3
I396
sg4
F90.0
sba(iframe
frame
p797
(dp798
g3
I397
sg4
F-90.0
sba(iframe
frame
p799
(dp800
g3
I398
sg4
F90.0
sba(iframe
frame
p801
(dp802
g3
I399
sg4
F-90.0
sba(iframe
frame
p803
(dp804
g3
I400
sg4
F90.0
sba(iframe
frame
p805
(dp806
g3
I401
sg4
F-90.0
sba(iframe
frame
p807
(dp808
g3
I402
sg4
F90.0
sba(iframe
frame
p809
(dp810
g3
I403
sg4
F-90.0
sba(iframe
frame
p811
(dp812
g3
I404
sg4
F90.0
sba(iframe
frame
p813
(dp814
g3
I405
sg4
F-90.0
sba(iframe
frame
p815
(dp816
g3
I406
sg4
F90.0
sba(iframe
frame
p817
(dp818
g3
I407
sg4
F90.0
sba(iframe
frame
p819
(dp820
g3
I408
sg4
F-90.0
sba(iframe
frame
p821
(dp822
g3
I409
sg4
F90.0
sba(iframe
frame
p823
(dp824
g3
I410
sg4
F-90.0
sba(iframe
frame
p825
(dp826
g3
I411
sg4
F90.0
sba(iframe
frame
p827
(dp828
g3
I412
sg4
F-90.0
sba(iframe
frame
p829
(dp830
g3
I413
sg4
F90.0
sba(iframe
frame
p831
(dp832
g3
I414
sg4
F90.0
sba(iframe
frame
p833
(dp834
g3
I415
sg4
F-90.0
sba(iframe
frame
p835
(dp836
g3
I416
sg4
F90.0
sba(iframe
frame
p837
(dp838
g3
I417
sg4
F90.0
sba(iframe
frame
p839
(dp840
g3
I418
sg4
F90.0
sba(iframe
frame
p841
(dp842
g3
I419
sg4
F90.0
sba(iframe
frame
p843
(dp844
g3
I420
sg4
F90.0
sba(iframe
frame
p845
(dp846
g3
I421
sg4
F90.0
sba(iframe
frame
p847
(dp848
g3
I422
sg4
F90.0
sba(iframe
frame
p849
(dp850
g3
I423
sg4
F90.0
sba(iframe
frame
p851
(dp852
g3
I424
sg4
F90.0
sba(iframe
frame
p853
(dp854
g3
I425
sg4
F90.0
sba(iframe
frame
p855
(dp856
g3
I426
sg4
F90.0
sba(iframe
frame
p857
(dp858
g3
I427
sg4
F90.0
sba(iframe
frame
p859
(dp860
g3
I428
sg4
F90.0
sba(iframe
frame
p861
(dp862
g3
I429
sg4
F90.0
sba(iframe
frame
p863
(dp864
g3
I430
sg4
F90.0
sba(iframe
frame
p865
(dp866
g3
I431
sg4
F90.0
sba(iframe
frame
p867
(dp868
g3
I432
sg4
F90.0
sba(iframe
frame
p869
(dp870
g3
I433
sg4
F90.0
sba(iframe
frame
p871
(dp872
g3
I434
sg4
F90.0
sba(iframe
frame
p873
(dp874
g3
I435
sg4
F90.0
sba(iframe
frame
p875
(dp876
g3
I436
sg4
F90.0
sba(iframe
frame
p877
(dp878
g3
I437
sg4
F90.0
sba(iframe
frame
p879
(dp880
g3
I438
sg4
F90.0
sba(iframe
frame
p881
(dp882
g3
I439
sg4
F90.0
sba(iframe
frame
p883
(dp884
g3
I440
sg4
F90.0
sba(iframe
frame
p885
(dp886
g3
I441
sg4
F90.0
sba(iframe
frame
p887
(dp888
g3
I442
sg4
F90.0
sba(iframe
frame
p889
(dp890
g3
I443
sg4
F90.0
sba(iframe
frame
p891
(dp892
g3
I444
sg4
F90.0
sba(iframe
frame
p893
(dp894
g3
I445
sg4
F90.0
sba(iframe
frame
p895
(dp896
g3
I446
sg4
F90.0
sba(iframe
frame
p897
(dp898
g3
I447
sg4
F90.0
sba(iframe
frame
p899
(dp900
g3
I448
sg4
F90.0
sba(iframe
frame
p901
(dp902
g3
I449
sg4
F90.0
sba(iframe
frame
p903
(dp904
g3
I450
sg4
F90.0
sba(iframe
frame
p905
(dp906
g3
I451
sg4
F90.0
sba(iframe
frame
p907
(dp908
g3
I452
sg4
F90.0
sba(iframe
frame
p909
(dp910
g3
I453
sg4
F90.0
sba(iframe
frame
p911
(dp912
g3
I454
sg4
F90.0
sba(iframe
frame
p913
(dp914
g3
I455
sg4
F90.0
sba(iframe
frame
p915
(dp916
g3
I456
sg4
F90.0
sba(iframe
frame
p917
(dp918
g3
I457
sg4
F90.0
sba(iframe
frame
p919
(dp920
g3
I458
sg4
F90.0
sba(iframe
frame
p921
(dp922
g3
I459
sg4
F90.0
sba(iframe
frame
p923
(dp924
g3
I460
sg4
F90.0
sba(iframe
frame
p925
(dp926
g3
I461
sg4
F90.0
sba(iframe
frame
p927
(dp928
g3
I462
sg4
F90.0
sba(iframe
frame
p929
(dp930
g3
I463
sg4
F90.0
sba(iframe
frame
p931
(dp932
g3
I464
sg4
F90.0
sba(iframe
frame
p933
(dp934
g3
I465
sg4
F90.0
sba(iframe
frame
p935
(dp936
g3
I466
sg4
F90.0
sba(iframe
frame
p937
(dp938
g3
I467
sg4
F90.0
sba(iframe
frame
p939
(dp940
g3
I468
sg4
F90.0
sba(iframe
frame
p941
(dp942
g3
I469
sg4
F90.0
sba(iframe
frame
p943
(dp944
g3
I470
sg4
F90.0
sba(iframe
frame
p945
(dp946
g3
I471
sg4
F90.0
sba(iframe
frame
p947
(dp948
g3
I472
sg4
F90.0
sba(iframe
frame
p949
(dp950
g3
I473
sg4
F90.0
sba(iframe
frame
p951
(dp952
g3
I474
sg4
F90.0
sba(iframe
frame
p953
(dp954
g3
I475
sg4
F90.0
sba(iframe
frame
p955
(dp956
g3
I476
sg4
F90.0
sba(iframe
frame
p957
(dp958
g3
I477
sg4
F90.0
sba(iframe
frame
p959
(dp960
g3
I478
sg4
F90.0
sba(iframe
frame
p961
(dp962
g3
I479
sg4
F90.0
sba(iframe
frame
p963
(dp964
g3
I480
sg4
F90.0
sba(iframe
frame
p965
(dp966
g3
I481
sg4
F90.0
sba(iframe
frame
p967
(dp968
g3
I482
sg4
F90.0
sba(iframe
frame
p969
(dp970
g3
I483
sg4
F90.0
sba(iframe
frame
p971
(dp972
g3
I484
sg4
F90.0
sba(iframe
frame
p973
(dp974
g3
I485
sg4
F90.0
sba(iframe
frame
p975
(dp976
g3
I486
sg4
F90.0
sba(iframe
frame
p977
(dp978
g3
I487
sg4
F90.0
sba(iframe
frame
p979
(dp980
g3
I488
sg4
F90.0
sba(iframe
frame
p981
(dp982
g3
I489
sg4
F90.0
sba(iframe
frame
p983
(dp984
g3
I490
sg4
F90.0
sba(iframe
frame
p985
(dp986
g3
I491
sg4
F90.0
sba(iframe
frame
p987
(dp988
g3
I492
sg4
F90.0
sba(iframe
frame
p989
(dp990
g3
I493
sg4
F90.0
sba(iframe
frame
p991
(dp992
g3
I494
sg4
F90.0
sba(iframe
frame
p993
(dp994
g3
I495
sg4
F90.0
sba(iframe
frame
p995
(dp996
g3
I496
sg4
F90.0
sba(iframe
frame
p997
(dp998
g3
I497
sg4
F90.0
sba(iframe
frame
p999
(dp1000
g3
I498
sg4
F90.0
sba(iframe
frame
p1001
(dp1002
g3
I499
sg4
F90.0
sba(iframe
frame
p1003
(dp1004
g3
I500
sg4
F90.0
sba(iframe
frame
p1005
(dp1006
g3
I501
sg4
F90.0
sba(iframe
frame
p1007
(dp1008
g3
I502
sg4
F90.0
sba(iframe
frame
p1009
(dp1010
g3
I503
sg4
F90.0
sba(iframe
frame
p1011
(dp1012
g3
I504
sg4
F90.0
sba(iframe
frame
p1013
(dp1014
g3
I505
sg4
F90.0
sba(iframe
frame
p1015
(dp1016
g3
I506
sg4
F90.0
sba(iframe
frame
p1017
(dp1018
g3
I507
sg4
F90.0
sba(iframe
frame
p1019
(dp1020
g3
I508
sg4
F90.0
sba(iframe
frame
p1021
(dp1022
g3
I509
sg4
F90.0
sba(iframe
frame
p1023
(dp1024
g3
I510
sg4
F90.0
sba(iframe
frame
p1025
(dp1026
g3
I511
sg4
F90.0
sba(iframe
frame
p1027
(dp1028
g3
I512
sg4
F90.0
sba(iframe
frame
p1029
(dp1030
g3
I513
sg4
F90.0
sba(iframe
frame
p1031
(dp1032
g3
I514
sg4
F90.0
sba(iframe
frame
p1033
(dp1034
g3
I515
sg4
F90.0
sba(iframe
frame
p1035
(dp1036
g3
I516
sg4
F90.0
sba(iframe
frame
p1037
(dp1038
g3
I517
sg4
F90.0
sba(iframe
frame
p1039
(dp1040
g3
I518
sg4
F90.0
sba(iframe
frame
p1041
(dp1042
g3
I519
sg4
F90.0
sba(iframe
frame
p1043
(dp1044
g3
I520
sg4
F90.0
sba(iframe
frame
p1045
(dp1046
g3
I521
sg4
F90.0
sba(iframe
frame
p1047
(dp1048
g3
I522
sg4
F90.0
sba(iframe
frame
p1049
(dp1050
g3
I523
sg4
F90.0
sba(iframe
frame
p1051
(dp1052
g3
I524
sg4
F90.0
sba(iframe
frame
p1053
(dp1054
g3
I525
sg4
F90.0
sba(iframe
frame
p1055
(dp1056
g3
I526
sg4
F90.0
sba(iframe
frame
p1057
(dp1058
g3
I527
sg4
F90.0
sba(iframe
frame
p1059
(dp1060
g3
I528
sg4
F90.0
sba(iframe
frame
p1061
(dp1062
g3
I529
sg4
F90.0
sba(iframe
frame
p1063
(dp1064
g3
I530
sg4
F90.0
sba(iframe
frame
p1065
(dp1066
g3
I531
sg4
F90.0
sba(iframe
frame
p1067
(dp1068
g3
I532
sg4
F90.0
sba(iframe
frame
p1069
(dp1070
g3
I533
sg4
F90.0
sba(iframe
frame
p1071
(dp1072
g3
I534
sg4
F90.0
sba(iframe
frame
p1073
(dp1074
g3
I535
sg4
F90.0
sba(iframe
frame
p1075
(dp1076
g3
I536
sg4
F90.0
sba(iframe
frame
p1077
(dp1078
g3
I537
sg4
F90.0
sba(iframe
frame
p1079
(dp1080
g3
I538
sg4
F90.0
sba(iframe
frame
p1081
(dp1082
g3
I539
sg4
F90.0
sba(iframe
frame
p1083
(dp1084
g3
I540
sg4
F90.0
sba(iframe
frame
p1085
(dp1086
g3
I541
sg4
F90.0
sba(iframe
frame
p1087
(dp1088
g3
I542
sg4
F90.0
sba(iframe
frame
p1089
(dp1090
g3
I543
sg4
F90.0
sba(iframe
frame
p1091
(dp1092
g3
I544
sg4
F90.0
sba(iframe
frame
p1093
(dp1094
g3
I545
sg4
F90.0
sba(iframe
frame
p1095
(dp1096
g3
I546
sg4
F90.0
sba(iframe
frame
p1097
(dp1098
g3
I547
sg4
F90.0
sba(iframe
frame
p1099
(dp1100
g3
I548
sg4
F90.0
sba(iframe
frame
p1101
(dp1102
g3
I549
sg4
F90.0
sba(iframe
frame
p1103
(dp1104
g3
I550
sg4
F90.0
sba(iframe
frame
p1105
(dp1106
g3
I551
sg4
F90.0
sba(iframe
frame
p1107
(dp1108
g3
I552
sg4
F90.0
sba(iframe
frame
p1109
(dp1110
g3
I553
sg4
F90.0
sba(iframe
frame
p1111
(dp1112
g3
I554
sg4
F90.0
sba(iframe
frame
p1113
(dp1114
g3
I555
sg4
F90.0
sba(iframe
frame
p1115
(dp1116
g3
I556
sg4
F90.0
sba(iframe
frame
p1117
(dp1118
g3
I557
sg4
F90.0
sba(iframe
frame
p1119
(dp1120
g3
I558
sg4
F90.0
sba(iframe
frame
p1121
(dp1122
g3
I559
sg4
F90.0
sba(iframe
frame
p1123
(dp1124
g3
I560
sg4
F90.0
sba(iframe
frame
p1125
(dp1126
g3
I561
sg4
F90.0
sba(iframe
frame
p1127
(dp1128
g3
I562
sg4
F90.0
sba(iframe
frame
p1129
(dp1130
g3
I563
sg4
F90.0
sba(iframe
frame
p1131
(dp1132
g3
I564
sg4
F90.0
sba(iframe
frame
p1133
(dp1134
g3
I565
sg4
F90.0
sba(iframe
frame
p1135
(dp1136
g3
I566
sg4
F90.0
sba(iframe
frame
p1137
(dp1138
g3
I567
sg4
F90.0
sba(iframe
frame
p1139
(dp1140
g3
I568
sg4
F90.0
sba(iframe
frame
p1141
(dp1142
g3
I569
sg4
F90.0
sba(iframe
frame
p1143
(dp1144
g3
I570
sg4
F90.0
sba(iframe
frame
p1145
(dp1146
g3
I571
sg4
F90.0
sba(iframe
frame
p1147
(dp1148
g3
I572
sg4
F90.0
sba(iframe
frame
p1149
(dp1150
g3
I573
sg4
F90.0
sba(iframe
frame
p1151
(dp1152
g3
I574
sg4
F90.0
sba(iframe
frame
p1153
(dp1154
g3
I575
sg4
F90.0
sba(iframe
frame
p1155
(dp1156
g3
I576
sg4
F90.0
sba(iframe
frame
p1157
(dp1158
g3
I577
sg4
F90.0
sba(iframe
frame
p1159
(dp1160
g3
I578
sg4
F90.0
sba(iframe
frame
p1161
(dp1162
g3
I579
sg4
F90.0
sba(iframe
frame
p1163
(dp1164
g3
I580
sg4
F90.0
sba(iframe
frame
p1165
(dp1166
g3
I581
sg4
F90.0
sba(iframe
frame
p1167
(dp1168
g3
I582
sg4
F90.0
sba(iframe
frame
p1169
(dp1170
g3
I583
sg4
F90.0
sba(iframe
frame
p1171
(dp1172
g3
I584
sg4
F90.0
sba(iframe
frame
p1173
(dp1174
g3
I585
sg4
F90.0
sba(iframe
frame
p1175
(dp1176
g3
I586
sg4
F90.0
sba(iframe
frame
p1177
(dp1178
g3
I587
sg4
F90.0
sba(iframe
frame
p1179
(dp1180
g3
I588
sg4
F90.0
sba(iframe
frame
p1181
(dp1182
g3
I589
sg4
F90.0
sba(iframe
frame
p1183
(dp1184
g3
I590
sg4
F90.0
sba(iframe
frame
p1185
(dp1186
g3
I591
sg4
F90.0
sba(iframe
frame
p1187
(dp1188
g3
I592
sg4
F90.0
sba(iframe
frame
p1189
(dp1190
g3
I593
sg4
F90.0
sba(iframe
frame
p1191
(dp1192
g3
I594
sg4
F90.0
sba(iframe
frame
p1193
(dp1194
g3
I595
sg4
F90.0
sba(iframe
frame
p1195
(dp1196
g3
I596
sg4
F90.0
sba(iframe
frame
p1197
(dp1198
g3
I597
sg4
F90.0
sba(iframe
frame
p1199
(dp1200
g3
I598
sg4
F90.0
sba(iframe
frame
p1201
(dp1202
g3
I599
sg4
F90.0
sba(iframe
frame
p1203
(dp1204
g3
I600
sg4
F90.0
sba(iframe
frame
p1205
(dp1206
g3
I601
sg4
F90.0
sba(iframe
frame
p1207
(dp1208
g3
I602
sg4
F90.0
sba(iframe
frame
p1209
(dp1210
g3
I603
sg4
F90.0
sba(iframe
frame
p1211
(dp1212
g3
I604
sg4
F90.0
sba(iframe
frame
p1213
(dp1214
g3
I605
sg4
F90.0
sba(iframe
frame
p1215
(dp1216
g3
I606
sg4
F90.0
sba(iframe
frame
p1217
(dp1218
g3
I607
sg4
F90.0
sba(iframe
frame
p1219
(dp1220
g3
I608
sg4
F90.0
sba(iframe
frame
p1221
(dp1222
g3
I609
sg4
F90.0
sba(iframe
frame
p1223
(dp1224
g3
I610
sg4
F90.0
sba(iframe
frame
p1225
(dp1226
g3
I611
sg4
F90.0
sba(iframe
frame
p1227
(dp1228
g3
I612
sg4
F90.0
sba(iframe
frame
p1229
(dp1230
g3
I613
sg4
F90.0
sba(iframe
frame
p1231
(dp1232
g3
I614
sg4
F90.0
sba(iframe
frame
p1233
(dp1234
g3
I615
sg4
F90.0
sba(iframe
frame
p1235
(dp1236
g3
I616
sg4
F90.0
sba(iframe
frame
p1237
(dp1238
g3
I617
sg4
F90.0
sba(iframe
frame
p1239
(dp1240
g3
I618
sg4
F90.0
sba(iframe
frame
p1241
(dp1242
g3
I619
sg4
F90.0
sba(iframe
frame
p1243
(dp1244
g3
I620
sg4
F90.0
sba(iframe
frame
p1245
(dp1246
g3
I621
sg4
F90.0
sba(iframe
frame
p1247
(dp1248
g3
I622
sg4
F90.0
sba(iframe
frame
p1249
(dp1250
g3
I623
sg4
F90.0
sba(iframe
frame
p1251
(dp1252
g3
I624
sg4
F90.0
sba(iframe
frame
p1253
(dp1254
g3
I625
sg4
F90.0
sba(iframe
frame
p1255
(dp1256
g3
I626
sg4
F90.0
sba(iframe
frame
p1257
(dp1258
g3
I627
sg4
F90.0
sba(iframe
frame
p1259
(dp1260
g3
I628
sg4
F90.0
sba(iframe
frame
p1261
(dp1262
g3
I629
sg4
F90.0
sba(iframe
frame
p1263
(dp1264
g3
I630
sg4
F90.0
sba(iframe
frame
p1265
(dp1266
g3
I631
sg4
F90.0
sba(iframe
frame
p1267
(dp1268
g3
I632
sg4
F90.0
sba(iframe
frame
p1269
(dp1270
g3
I633
sg4
F90.0
sba(iframe
frame
p1271
(dp1272
g3
I634
sg4
F90.0
sba(iframe
frame
p1273
(dp1274
g3
I635
sg4
F90.0
sba(iframe
frame
p1275
(dp1276
g3
I636
sg4
F90.0
sba(iframe
frame
p1277
(dp1278
g3
I637
sg4
F90.0
sba(iframe
frame
p1279
(dp1280
g3
I638
sg4
F90.0
sba(iframe
frame
p1281
(dp1282
g3
I639
sg4
F90.0
sba(iframe
frame
p1283
(dp1284
g3
I640
sg4
F90.0
sba(iframe
frame
p1285
(dp1286
g3
I641
sg4
F90.0
sba(iframe
frame
p1287
(dp1288
g3
I642
sg4
F90.0
sba(iframe
frame
p1289
(dp1290
g3
I643
sg4
F90.0
sba(iframe
frame
p1291
(dp1292
g3
I644
sg4
F90.0
sba(iframe
frame
p1293
(dp1294
g3
I645
sg4
F90.0
sba(iframe
frame
p1295
(dp1296
g3
I646
sg4
F90.0
sba(iframe
frame
p1297
(dp1298
g3
I647
sg4
F90.0
sba(iframe
frame
p1299
(dp1300
g3
I648
sg4
F90.0
sba(iframe
frame
p1301
(dp1302
g3
I649
sg4
F90.0
sba(iframe
frame
p1303
(dp1304
g3
I650
sg4
F90.0
sba(iframe
frame
p1305
(dp1306
g3
I651
sg4
F90.0
sba(iframe
frame
p1307
(dp1308
g3
I652
sg4
F90.0
sba(iframe
frame
p1309
(dp1310
g3
I653
sg4
F90.0
sba(iframe
frame
p1311
(dp1312
g3
I654
sg4
F90.0
sba(iframe
frame
p1313
(dp1314
g3
I655
sg4
F90.0
sba(iframe
frame
p1315
(dp1316
g3
I656
sg4
F90.0
sba(iframe
frame
p1317
(dp1318
g3
I657
sg4
F90.0
sba(iframe
frame
p1319
(dp1320
g3
I658
sg4
F90.0
sba(iframe
frame
p1321
(dp1322
g3
I659
sg4
F90.0
sba(iframe
frame
p1323
(dp1324
g3
I660
sg4
F90.0
sba(iframe
frame
p1325
(dp1326
g3
I661
sg4
F90.0
sba(iframe
frame
p1327
(dp1328
g3
I662
sg4
F90.0
sba(iframe
frame
p1329
(dp1330
g3
I663
sg4
F90.0
sba(iframe
frame
p1331
(dp1332
g3
I664
sg4
F90.0
sba(iframe
frame
p1333
(dp1334
g3
I665
sg4
F90.0
sba(iframe
frame
p1335
(dp1336
g3
I666
sg4
F90.0
sba(iframe
frame
p1337
(dp1338
g3
I667
sg4
F90.0
sba(iframe
frame
p1339
(dp1340
g3
I668
sg4
F90.0
sba(iframe
frame
p1341
(dp1342
g3
I669
sg4
F90.0
sba(iframe
frame
p1343
(dp1344
g3
I670
sg4
F90.0
sba(iframe
frame
p1345
(dp1346
g3
I671
sg4
F90.0
sba(iframe
frame
p1347
(dp1348
g3
I672
sg4
F90.0
sba(iframe
frame
p1349
(dp1350
g3
I673
sg4
F90.0
sba(iframe
frame
p1351
(dp1352
g3
I674
sg4
F90.0
sba(iframe
frame
p1353
(dp1354
g3
I675
sg4
F90.0
sba(iframe
frame
p1355
(dp1356
g3
I676
sg4
F90.0
sba(iframe
frame
p1357
(dp1358
g3
I677
sg4
F90.0
sba(iframe
frame
p1359
(dp1360
g3
I678
sg4
F90.0
sba(iframe
frame
p1361
(dp1362
g3
I679
sg4
F90.0
sba(iframe
frame
p1363
(dp1364
g3
I680
sg4
F90.0
sba(iframe
frame
p1365
(dp1366
g3
I681
sg4
F90.0
sba(iframe
frame
p1367
(dp1368
g3
I682
sg4
F90.0
sba(iframe
frame
p1369
(dp1370
g3
I683
sg4
F90.0
sba(iframe
frame
p1371
(dp1372
g3
I684
sg4
F90.0
sba(iframe
frame
p1373
(dp1374
g3
I685
sg4
F90.0
sba(iframe
frame
p1375
(dp1376
g3
I686
sg4
F90.0
sba(iframe
frame
p1377
(dp1378
g3
I687
sg4
F90.0
sba(iframe
frame
p1379
(dp1380
g3
I688
sg4
F90.0
sba(iframe
frame
p1381
(dp1382
g3
I689
sg4
F90.0
sba(iframe
frame
p1383
(dp1384
g3
I690
sg4
F90.0
sba(iframe
frame
p1385
(dp1386
g3
I691
sg4
F90.0
sba(iframe
frame
p1387
(dp1388
g3
I692
sg4
F90.0
sba(iframe
frame
p1389
(dp1390
g3
I693
sg4
F90.0
sba(iframe
frame
p1391
(dp1392
g3
I694
sg4
F90.0
sba(iframe
frame
p1393
(dp1394
g3
I695
sg4
F90.0
sba(iframe
frame
p1395
(dp1396
g3
I696
sg4
F90.0
sba(iframe
frame
p1397
(dp1398
g3
I697
sg4
F90.0
sba(iframe
frame
p1399
(dp1400
g3
I698
sg4
F90.0
sba(iframe
frame
p1401
(dp1402
g3
I699
sg4
F90.0
sba(iframe
frame
p1403
(dp1404
g3
I700
sg4
F90.0
sba(iframe
frame
p1405
(dp1406
g3
I701
sg4
F90.0
sba(iframe
frame
p1407
(dp1408
g3
I702
sg4
F90.0
sba(iframe
frame
p1409
(dp1410
g3
I703
sg4
F90.0
sba(iframe
frame
p1411
(dp1412
g3
I704
sg4
F90.0
sba(iframe
frame
p1413
(dp1414
g3
I705
sg4
F90.0
sba(iframe
frame
p1415
(dp1416
g3
I706
sg4
F90.0
sba(iframe
frame
p1417
(dp1418
g3
I707
sg4
F90.0
sba(iframe
frame
p1419
(dp1420
g3
I708
sg4
F90.0
sba(iframe
frame
p1421
(dp1422
g3
I709
sg4
F90.0
sba(iframe
frame
p1423
(dp1424
g3
I710
sg4
F90.0
sba(iframe
frame
p1425
(dp1426
g3
I711
sg4
F-90.0
sba(iframe
frame
p1427
(dp1428
g3
I712
sg4
F-90.0
sba(iframe
frame
p1429
(dp1430
g3
I713
sg4
F-90.0
sba(iframe
frame
p1431
(dp1432
g3
I714
sg4
F-90.0
sba(iframe
frame
p1433
(dp1434
g3
I715
sg4
F-90.0
sba(iframe
frame
p1435
(dp1436
g3
I716
sg4
F-90.0
sba(iframe
frame
p1437
(dp1438
g3
I717
sg4
F-90.0
sba(iframe
frame
p1439
(dp1440
g3
I718
sg4
F-90.0
sba(iframe
frame
p1441
(dp1442
g3
I719
sg4
F-90.0
sba(iframe
frame
p1443
(dp1444
g3
I720
sg4
F-90.0
sba(iframe
frame
p1445
(dp1446
g3
I721
sg4
F-90.0
sba(iframe
frame
p1447
(dp1448
g3
I722
sg4
F-90.0
sba(iframe
frame
p1449
(dp1450
g3
I723
sg4
F-90.0
sba(iframe
frame
p1451
(dp1452
g3
I724
sg4
F-90.0
sba(iframe
frame
p1453
(dp1454
g3
I725
sg4
F-90.0
sba(iframe
frame
p1455
(dp1456
g3
I726
sg4
F-90.0
sba(iframe
frame
p1457
(dp1458
g3
I727
sg4
F-90.0
sba(iframe
frame
p1459
(dp1460
g3
I728
sg4
F-90.0
sba(iframe
frame
p1461
(dp1462
g3
I729
sg4
F-90.0
sba(iframe
frame
p1463
(dp1464
g3
I730
sg4
F-90.0
sba(iframe
frame
p1465
(dp1466
g3
I731
sg4
F-90.0
sba(iframe
frame
p1467
(dp1468
g3
I732
sg4
F-90.0
sba(iframe
frame
p1469
(dp1470
g3
I733
sg4
F-90.0
sba(iframe
frame
p1471
(dp1472
g3
I734
sg4
F-90.0
sba(iframe
frame
p1473
(dp1474
g3
I735
sg4
F-90.0
sba(iframe
frame
p1475
(dp1476
g3
I736
sg4
F-90.0
sba(iframe
frame
p1477
(dp1478
g3
I737
sg4
F-90.0
sba(iframe
frame
p1479
(dp1480
g3
I738
sg4
F-90.0
sba(iframe
frame
p1481
(dp1482
g3
I739
sg4
F-90.0
sba(iframe
frame
p1483
(dp1484
g3
I740
sg4
F-90.0
sba(iframe
frame
p1485
(dp1486
g3
I741
sg4
F-90.0
sba(iframe
frame
p1487
(dp1488
g3
I742
sg4
F-90.0
sba(iframe
frame
p1489
(dp1490
g3
I743
sg4
F-90.0
sba(iframe
frame
p1491
(dp1492
g3
I744
sg4
F-90.0
sba(iframe
frame
p1493
(dp1494
g3
I745
sg4
F-90.0
sba(iframe
frame
p1495
(dp1496
g3
I746
sg4
F-90.0
sba(iframe
frame
p1497
(dp1498
g3
I747
sg4
F-90.0
sba(iframe
frame
p1499
(dp1500
g3
I748
sg4
F-90.0
sba(iframe
frame
p1501
(dp1502
g3
I749
sg4
F-90.0
sba(iframe
frame
p1503
(dp1504
g3
I750
sg4
F-90.0
sba(iframe
frame
p1505
(dp1506
g3
I751
sg4
F-90.0
sba(iframe
frame
p1507
(dp1508
g3
I752
sg4
F-90.0
sba(iframe
frame
p1509
(dp1510
g3
I753
sg4
F-90.0
sba(iframe
frame
p1511
(dp1512
g3
I754
sg4
F-90.0
sba(iframe
frame
p1513
(dp1514
g3
I755
sg4
F-90.0
sba(iframe
frame
p1515
(dp1516
g3
I756
sg4
F-90.0
sba(iframe
frame
p1517
(dp1518
g3
I757
sg4
F-90.0
sba(iframe
frame
p1519
(dp1520
g3
I758
sg4
F-90.0
sba(iframe
frame
p1521
(dp1522
g3
I759
sg4
F-90.0
sba(iframe
frame
p1523
(dp1524
g3
I760
sg4
F-90.0
sba(iframe
frame
p1525
(dp1526
g3
I761
sg4
F-90.0
sba(iframe
frame
p1527
(dp1528
g3
I762
sg4
F-90.0
sba(iframe
frame
p1529
(dp1530
g3
I763
sg4
F-90.0
sba(iframe
frame
p1531
(dp1532
g3
I764
sg4
F-90.0
sba(iframe
frame
p1533
(dp1534
g3
I765
sg4
F-90.0
sba(iframe
frame
p1535
(dp1536
g3
I766
sg4
F-90.0
sba(iframe
frame
p1537
(dp1538
g3
I767
sg4
F-90.0
sba(iframe
frame
p1539
(dp1540
g3
I768
sg4
F-90.0
sba(iframe
frame
p1541
(dp1542
g3
I769
sg4
F-90.0
sba(iframe
frame
p1543
(dp1544
g3
I770
sg4
F-90.0
sba(iframe
frame
p1545
(dp1546
g3
I771
sg4
F-90.0
sba(iframe
frame
p1547
(dp1548
g3
I772
sg4
F-90.0
sba(iframe
frame
p1549
(dp1550
g3
I773
sg4
F-90.0
sba(iframe
frame
p1551
(dp1552
g3
I774
sg4
F-90.0
sba(iframe
frame
p1553
(dp1554
g3
I775
sg4
F-90.0
sba(iframe
frame
p1555
(dp1556
g3
I776
sg4
F-90.0
sba(iframe
frame
p1557
(dp1558
g3
I777
sg4
F-90.0
sba(iframe
frame
p1559
(dp1560
g3
I778
sg4
F-90.0
sba(iframe
frame
p1561
(dp1562
g3
I779
sg4
F-90.0
sba(iframe
frame
p1563
(dp1564
g3
I780
sg4
F-90.0
sba(iframe
frame
p1565
(dp1566
g3
I781
sg4
F-90.0
sba(iframe
frame
p1567
(dp1568
g3
I782
sg4
F-90.0
sba(iframe
frame
p1569
(dp1570
g3
I783
sg4
F-90.0
sba(iframe
frame
p1571
(dp1572
g3
I784
sg4
F-90.0
sba(iframe
frame
p1573
(dp1574
g3
I785
sg4
F-90.0
sba(iframe
frame
p1575
(dp1576
g3
I786
sg4
F-90.0
sba(iframe
frame
p1577
(dp1578
g3
I787
sg4
F-90.0
sba(iframe
frame
p1579
(dp1580
g3
I788
sg4
F-90.0
sba(iframe
frame
p1581
(dp1582
g3
I789
sg4
F-90.0
sba(iframe
frame
p1583
(dp1584
g3
I790
sg4
F-90.0
sba(iframe
frame
p1585
(dp1586
g3
I791
sg4
F-90.0
sba(iframe
frame
p1587
(dp1588
g3
I792
sg4
F-90.0
sba(iframe
frame
p1589
(dp1590
g3
I793
sg4
F-90.0
sba(iframe
frame
p1591
(dp1592
g3
I794
sg4
F-90.0
sba(iframe
frame
p1593
(dp1594
g3
I795
sg4
F-90.0
sba(iframe
frame
p1595
(dp1596
g3
I796
sg4
F-90.0
sba(iframe
frame
p1597
(dp1598
g3
I797
sg4
F-90.0
sba(iframe
frame
p1599
(dp1600
g3
I798
sg4
F-90.0
sba(iframe
frame
p1601
(dp1602
g3
I799
sg4
F-90.0
sba(iframe
frame
p1603
(dp1604
g3
I800
sg4
F-90.0
sba(iframe
frame
p1605
(dp1606
g3
I801
sg4
F-90.0
sba(iframe
frame
p1607
(dp1608
g3
I802
sg4
F-90.0
sba(iframe
frame
p1609
(dp1610
g3
I803
sg4
F-90.0
sba(iframe
frame
p1611
(dp1612
g3
I804
sg4
F-90.0
sba(iframe
frame
p1613
(dp1614
g3
I805
sg4
F-90.0
sba(iframe
frame
p1615
(dp1616
g3
I806
sg4
F-90.0
sba(iframe
frame
p1617
(dp1618
g3
I807
sg4
F-90.0
sba(iframe
frame
p1619
(dp1620
g3
I808
sg4
F-90.0
sba(iframe
frame
p1621
(dp1622
g3
I809
sg4
F90.0
sba(iframe
frame
p1623
(dp1624
g3
I810
sg4
F90.0
sba(iframe
frame
p1625
(dp1626
g3
I811
sg4
F-90.0
sba(iframe
frame
p1627
(dp1628
g3
I812
sg4
F90.0
sba(iframe
frame
p1629
(dp1630
g3
I813
sg4
F90.0
sba(iframe
frame
p1631
(dp1632
g3
I814
sg4
F-90.0
sba(iframe
frame
p1633
(dp1634
g3
I815
sg4
F90.0
sba(iframe
frame
p1635
(dp1636
g3
I816
sg4
F90.0
sba(iframe
frame
p1637
(dp1638
g3
I817
sg4
F-90.0
sba(iframe
frame
p1639
(dp1640
g3
I818
sg4
F90.0
sba(iframe
frame
p1641
(dp1642
g3
I819
sg4
F90.0
sba(iframe
frame
p1643
(dp1644
g3
I820
sg4
F-90.0
sba(iframe
frame
p1645
(dp1646
g3
I821
sg4
F90.0
sba(iframe
frame
p1647
(dp1648
g3
I822
sg4
F90.0
sba(iframe
frame
p1649
(dp1650
g3
I823
sg4
F-90.0
sba(iframe
frame
p1651
(dp1652
g3
I824
sg4
F90.0
sba(iframe
frame
p1653
(dp1654
g3
I825
sg4
F90.0
sba(iframe
frame
p1655
(dp1656
g3
I826
sg4
F-90.0
sba(iframe
frame
p1657
(dp1658
g3
I827
sg4
F90.0
sba(iframe
frame
p1659
(dp1660
g3
I828
sg4
F90.0
sba(iframe
frame
p1661
(dp1662
g3
I829
sg4
F-90.0
sba(iframe
frame
p1663
(dp1664
g3
I830
sg4
F90.0
sba(iframe
frame
p1665
(dp1666
g3
I831
sg4
F90.0
sba(iframe
frame
p1667
(dp1668
g3
I832
sg4
F-90.0
sba(iframe
frame
p1669
(dp1670
g3
I833
sg4
F90.0
sba(iframe
frame
p1671
(dp1672
g3
I834
sg4
F90.0
sba(iframe
frame
p1673
(dp1674
g3
I835
sg4
F-90.0
sba(iframe
frame
p1675
(dp1676
g3
I836
sg4
F90.0
sba(iframe
frame
p1677
(dp1678
g3
I837
sg4
F-90.0
sba(iframe
frame
p1679
(dp1680
g3
I838
sg4
F90.0
sba(iframe
frame
p1681
(dp1682
g3
I839
sg4
F90.0
sba(iframe
frame
p1683
(dp1684
g3
I840
sg4
F-90.0
sba(iframe
frame
p1685
(dp1686
g3
I841
sg4
F90.0
sba(iframe
frame
p1687
(dp1688
g3
I842
sg4
F90.0
sba(iframe
frame
p1689
(dp1690
g3
I843
sg4
F-90.0
sba(iframe
frame
p1691
(dp1692
g3
I844
sg4
F90.0
sba(iframe
frame
p1693
(dp1694
g3
I845
sg4
F-90.0
sba(iframe
frame
p1695
(dp1696
g3
I846
sg4
F90.0
sba(iframe
frame
p1697
(dp1698
g3
I847
sg4
F90.0
sba(iframe
frame
p1699
(dp1700
g3
I848
sg4
F-90.0
sba(iframe
frame
p1701
(dp1702
g3
I849
sg4
F90.0
sba(iframe
frame
p1703
(dp1704
g3
I850
sg4
F-90.0
sba(iframe
frame
p1705
(dp1706
g3
I851
sg4
F90.0
sba(iframe
frame
p1707
(dp1708
g3
I852
sg4
F90.0
sba(iframe
frame
p1709
(dp1710
g3
I853
sg4
F-90.0
sba(iframe
frame
p1711
(dp1712
g3
I854
sg4
F90.0
sba(iframe
frame
p1713
(dp1714
g3
I855
sg4
F-90.0
sba(iframe
frame
p1715
(dp1716
g3
I856
sg4
F90.0
sba(iframe
frame
p1717
(dp1718
g3
I857
sg4
F90.0
sba(iframe
frame
p1719
(dp1720
g3
I858
sg4
F-90.0
sba(iframe
frame
p1721
(dp1722
g3
I859
sg4
F90.0
sba(iframe
frame
p1723
(dp1724
g3
I860
sg4
F-90.0
sba(iframe
frame
p1725
(dp1726
g3
I861
sg4
F90.0
sba(iframe
frame
p1727
(dp1728
g3
I862
sg4
F90.0
sba(iframe
frame
p1729
(dp1730
g3
I863
sg4
F-90.0
sba(iframe
frame
p1731
(dp1732
g3
I864
sg4
F90.0
sba(iframe
frame
p1733
(dp1734
g3
I865
sg4
F-90.0
sba(iframe
frame
p1735
(dp1736
g3
I866
sg4
F-90.0
sba(iframe
frame
p1737
(dp1738
g3
I867
sg4
F90.0
sba(iframe
frame
p1739
(dp1740
g3
I868
sg4
F90.0
sba(iframe
frame
p1741
(dp1742
g3
I869
sg4
F90.0
sba(iframe
frame
p1743
(dp1744
g3
I870
sg4
F-90.0
sba(iframe
frame
p1745
(dp1746
g3
I871
sg4
F90.0
sba(iframe
frame
p1747
(dp1748
g3
I872
sg4
F-90.0
sba(iframe
frame
p1749
(dp1750
g3
I873
sg4
F-90.0
sba(iframe
frame
p1751
(dp1752
g3
I874
sg4
F90.0
sba(iframe
frame
p1753
(dp1754
g3
I875
sg4
F90.0
sba(iframe
frame
p1755
(dp1756
g3
I876
sg4
F90.0
sba(iframe
frame
p1757
(dp1758
g3
I877
sg4
F-90.0
sba(iframe
frame
p1759
(dp1760
g3
I878
sg4
F90.0
sba(iframe
frame
p1761
(dp1762
g3
I879
sg4
F-90.0
sba(iframe
frame
p1763
(dp1764
g3
I880
sg4
F90.0
sba(iframe
frame
p1765
(dp1766
g3
I881
sg4
F-90.0
sba(iframe
frame
p1767
(dp1768
g3
I882
sg4
F90.0
sba(iframe
frame
p1769
(dp1770
g3
I883
sg4
F90.0
sba(iframe
frame
p1771
(dp1772
g3
I884
sg4
F-90.0
sba(iframe
frame
p1773
(dp1774
g3
I885
sg4
F90.0
sba(iframe
frame
p1775
(dp1776
g3
I886
sg4
F-90.0
sba(iframe
frame
p1777
(dp1778
g3
I887
sg4
F90.0
sba(iframe
frame
p1779
(dp1780
g3
I888
sg4
F-90.0
sba(iframe
frame
p1781
(dp1782
g3
I889
sg4
F90.0
sba(iframe
frame
p1783
(dp1784
g3
I890
sg4
F-90.0
sba(iframe
frame
p1785
(dp1786
g3
I891
sg4
F90.0
sba(iframe
frame
p1787
(dp1788
g3
I892
sg4
F90.0
sba(iframe
frame
p1789
(dp1790
g3
I893
sg4
F90.0
sba(iframe
frame
p1791
(dp1792
g3
I894
sg4
F-90.0
sba(iframe
frame
p1793
(dp1794
g3
I895
sg4
F-90.0
sba(iframe
frame
p1795
(dp1796
g3
I896
sg4
F90.0
sba(iframe
frame
p1797
(dp1798
g3
I897
sg4
F-90.0
sba(iframe
frame
p1799
(dp1800
g3
I898
sg4
F90.0
sba(iframe
frame
p1801
(dp1802
g3
I899
sg4
F90.0
sba(iframe
frame
p1803
(dp1804
g3
I900
sg4
F-90.0
sba(iframe
frame
p1805
(dp1806
g3
I901
sg4
F-90.0
sba(iframe
frame
p1807
(dp1808
g3
I902
sg4
F90.0
sba(iframe
frame
p1809
(dp1810
g3
I903
sg4
F-90.0
sba(iframe
frame
p1811
(dp1812
g3
I904
sg4
F90.0
sba(iframe
frame
p1813
(dp1814
g3
I905
sg4
F90.0
sba(iframe
frame
p1815
(dp1816
g3
I906
sg4
F-90.0
sba(iframe
frame
p1817
(dp1818
g3
I907
sg4
F90.0
sba(iframe
frame
p1819
(dp1820
g3
I908
sg4
F-90.0
sba(iframe
frame
p1821
(dp1822
g3
I909
sg4
F90.0
sba(iframe
frame
p1823
(dp1824
g3
I910
sg4
F-90.0
sba(iframe
frame
p1825
(dp1826
g3
I911
sg4
F90.0
sba(iframe
frame
p1827
(dp1828
g3
I912
sg4
F-90.0
sba(iframe
frame
p1829
(dp1830
g3
I913
sg4
F-90.0
sba(iframe
frame
p1831
(dp1832
g3
I914
sg4
F90.0
sba(iframe
frame
p1833
(dp1834
g3
I915
sg4
F90.0
sba(iframe
frame
p1835
(dp1836
g3
I916
sg4
F-90.0
sba(iframe
frame
p1837
(dp1838
g3
I917
sg4
F90.0
sba(iframe
frame
p1839
(dp1840
g3
I918
sg4
F-90.0
sba(iframe
frame
p1841
(dp1842
g3
I919
sg4
F90.0
sba(iframe
frame
p1843
(dp1844
g3
I920
sg4
F-90.0
sba(iframe
frame
p1845
(dp1846
g3
I921
sg4
F90.0
sba(iframe
frame
p1847
(dp1848
g3
I922
sg4
F90.0
sba(iframe
frame
p1849
(dp1850
g3
I923
sg4
F-90.0
sba(iframe
frame
p1851
(dp1852
g3
I924
sg4
F90.0
sba(iframe
frame
p1853
(dp1854
g3
I925
sg4
F-90.0
sba(iframe
frame
p1855
(dp1856
g3
I926
sg4
F90.0
sba(iframe
frame
p1857
(dp1858
g3
I927
sg4
F-90.0
sba(iframe
frame
p1859
(dp1860
g3
I928
sg4
F90.0
sba(iframe
frame
p1861
(dp1862
g3
I929
sg4
F-90.0
sba(iframe
frame
p1863
(dp1864
g3
I930
sg4
F90.0
sba(iframe
frame
p1865
(dp1866
g3
I931
sg4
F-90.0
sba(iframe
frame
p1867
(dp1868
g3
I932
sg4
F90.0
sba(iframe
frame
p1869
(dp1870
g3
I933
sg4
F-90.0
sba(iframe
frame
p1871
(dp1872
g3
I934
sg4
F90.0
sba(iframe
frame
p1873
(dp1874
g3
I935
sg4
F-90.0
sba(iframe
frame
p1875
(dp1876
g3
I936
sg4
F90.0
sba(iframe
frame
p1877
(dp1878
g3
I937
sg4
F90.0
sba(iframe
frame
p1879
(dp1880
g3
I938
sg4
F-90.0
sba(iframe
frame
p1881
(dp1882
g3
I939
sg4
F-90.0
sba(iframe
frame
p1883
(dp1884
g3
I940
sg4
F90.0
sba(iframe
frame
p1885
(dp1886
g3
I941
sg4
F-90.0
sba(iframe
frame
p1887
(dp1888
g3
I942
sg4
F90.0
sba(iframe
frame
p1889
(dp1890
g3
I943
sg4
F-90.0
sba(iframe
frame
p1891
(dp1892
g3
I944
sg4
F90.0
sba(iframe
frame
p1893
(dp1894
g3
I945
sg4
F-90.0
sba(iframe
frame
p1895
(dp1896
g3
I946
sg4
F90.0
sba(iframe
frame
p1897
(dp1898
g3
I947
sg4
F90.0
sba(iframe
frame
p1899
(dp1900
g3
I948
sg4
F-90.0
sba(iframe
frame
p1901
(dp1902
g3
I949
sg4
F90.0
sba(iframe
frame
p1903
(dp1904
g3
I950
sg4
F-90.0
sba(iframe
frame
p1905
(dp1906
g3
I951
sg4
F90.0
sba(iframe
frame
p1907
(dp1908
g3
I952
sg4
F-90.0
sba(iframe
frame
p1909
(dp1910
g3
I953
sg4
F90.0
sba(iframe
frame
p1911
(dp1912
g3
I954
sg4
F-90.0
sba(iframe
frame
p1913
(dp1914
g3
I955
sg4
F90.0
sba(iframe
frame
p1915
(dp1916
g3
I956
sg4
F-90.0
sba(iframe
frame
p1917
(dp1918
g3
I957
sg4
F90.0
sba(iframe
frame
p1919
(dp1920
g3
I958
sg4
F-90.0
sba(iframe
frame
p1921
(dp1922
g3
I959
sg4
F90.0
sba(iframe
frame
p1923
(dp1924
g3
I960
sg4
F-90.0
sba(iframe
frame
p1925
(dp1926
g3
I961
sg4
F90.0
sba(iframe
frame
p1927
(dp1928
g3
I962
sg4
F-90.0
sba(iframe
frame
p1929
(dp1930
g3
I963
sg4
F90.0
sba(iframe
frame
p1931
(dp1932
g3
I964
sg4
F-90.0
sba(iframe
frame
p1933
(dp1934
g3
I965
sg4
F90.0
sba(iframe
frame
p1935
(dp1936
g3
I966
sg4
F-90.0
sba(iframe
frame
p1937
(dp1938
g3
I967
sg4
F90.0
sba(iframe
frame
p1939
(dp1940
g3
I968
sg4
F-90.0
sba(iframe
frame
p1941
(dp1942
g3
I969
sg4
F90.0
sba(iframe
frame
p1943
(dp1944
g3
I970
sg4
F-90.0
sba(iframe
frame
p1945
(dp1946
g3
I971
sg4
F90.0
sba(iframe
frame
p1947
(dp1948
g3
I972
sg4
F-90.0
sba(iframe
frame
p1949
(dp1950
g3
I973
sg4
F90.0
sba(iframe
frame
p1951
(dp1952
g3
I974
sg4
F90.0
sba(iframe
frame
p1953
(dp1954
g3
I975
sg4
F-90.0
sba(iframe
frame
p1955
(dp1956
g3
I976
sg4
F-90.0
sba(iframe
frame
p1957
(dp1958
g3
I977
sg4
F90.0
sba(iframe
frame
p1959
(dp1960
g3
I978
sg4
F-90.0
sba(iframe
frame
p1961
(dp1962
g3
I979
sg4
F90.0
sba(iframe
frame
p1963
(dp1964
g3
I980
sg4
F-90.0
sba(iframe
frame
p1965
(dp1966
g3
I981
sg4
F90.0
sba(iframe
frame
p1967
(dp1968
g3
I982
sg4
F-90.0
sba(iframe
frame
p1969
(dp1970
g3
I983
sg4
F90.0
sba(iframe
frame
p1971
(dp1972
g3
I984
sg4
F-90.0
sba(iframe
frame
p1973
(dp1974
g3
I985
sg4
F90.0
sba(iframe
frame
p1975
(dp1976
g3
I986
sg4
F-90.0
sba(iframe
frame
p1977
(dp1978
g3
I987
sg4
F90.0
sba(iframe
frame
p1979
(dp1980
g3
I988
sg4
F-90.0
sba(iframe
frame
p1981
(dp1982
g3
I989
sg4
F90.0
sba(iframe
frame
p1983
(dp1984
g3
I990
sg4
F-90.0
sba(iframe
frame
p1985
(dp1986
g3
I991
sg4
F90.0
sba(iframe
frame
p1987
(dp1988
g3
I992
sg4
F-90.0
sba(iframe
frame
p1989
(dp1990
g3
I993
sg4
F-90.0
sba(iframe
frame
p1991
(dp1992
g3
I994
sg4
F90.0
sba(iframe
frame
p1993
(dp1994
g3
I995
sg4
F90.0
sba(iframe
frame
p1995
(dp1996
g3
I996
sg4
F-90.0
sba(iframe
frame
p1997
(dp1998
g3
I997
sg4
F90.0
sba(iframe
frame
p1999
(dp2000
g3
I998
sg4
F-90.0
sba(iframe
frame
p2001
(dp2002
g3
I999
sg4
F90.0
sba(iframe
frame
p2003
(dp2004
g3
I1000
sg4
F-90.0
sba(iframe
frame
p2005
(dp2006
g3
I1001
sg4
F90.0
sba(iframe
frame
p2007
(dp2008
g3
I1002
sg4
F-90.0
sba(iframe
frame
p2009
(dp2010
g3
I1003
sg4
F90.0
sba(iframe
frame
p2011
(dp2012
g3
I1004
sg4
F-90.0
sba(iframe
frame
p2013
(dp2014
g3
I1005
sg4
F90.0
sba(iframe
frame
p2015
(dp2016
g3
I1006
sg4
F-90.0
sba(iframe
frame
p2017
(dp2018
g3
I1007
sg4
F90.0
sba(iframe
frame
p2019
(dp2020
g3
I1008
sg4
F90.0
sba(iframe
frame
p2021
(dp2022
g3
I1009
sg4
F-90.0
sba(iframe
frame
p2023
(dp2024
g3
I1010
sg4
F90.0
sba(iframe
frame
p2025
(dp2026
g3
I1011
sg4
F-90.0
sba(iframe
frame
p2027
(dp2028
g3
I1012
sg4
F-90.0
sba(iframe
frame
p2029
(dp2030
g3
I1013
sg4
F90.0
sba(iframe
frame
p2031
(dp2032
g3
I1014
sg4
F90.0
sba(iframe
frame
p2033
(dp2034
g3
I1015
sg4
F90.0
sba(iframe
frame
p2035
(dp2036
g3
I1016
sg4
F-90.0
sba(iframe
frame
p2037
(dp2038
g3
I1017
sg4
F-90.0
sba(iframe
frame
p2039
(dp2040
g3
I1018
sg4
F-90.0
sba(iframe
frame
p2041
(dp2042
g3
I1019
sg4
F-90.0
sba(iframe
frame
p2043
(dp2044
g3
I1020
sg4
F90.0
sba(iframe
frame
p2045
(dp2046
g3
I1021
sg4
F90.0
sba(iframe
frame
p2047
(dp2048
g3
I1022
sg4
F90.0
sba(iframe
frame
p2049
(dp2050
g3
I1023
sg4
F-90.0
sba(iframe
frame
p2051
(dp2052
g3
I1024
sg4
F90.0
sba(iframe
frame
p2053
(dp2054
g3
I1025
sg4
F90.0
sba(iframe
frame
p2055
(dp2056
g3
I1026
sg4
F-90.0
sba(iframe
frame
p2057
(dp2058
g3
I1027
sg4
F-90.0
sba(iframe
frame
p2059
(dp2060
g3
I1028
sg4
F-90.0
sba(iframe
frame
p2061
(dp2062
g3
I1029
sg4
F90.0
sba(iframe
frame
p2063
(dp2064
g3
I1030
sg4
F90.0
sba(iframe
frame
p2065
(dp2066
g3
I1031
sg4
F90.0
sba(iframe
frame
p2067
(dp2068
g3
I1032
sg4
F-90.0
sba(iframe
frame
p2069
(dp2070
g3
I1033
sg4
F-90.0
sba(iframe
frame
p2071
(dp2072
g3
I1034
sg4
F-90.0
sba(iframe
frame
p2073
(dp2074
g3
I1035
sg4
F90.0
sba(iframe
frame
p2075
(dp2076
g3
I1036
sg4
F90.0
sba(iframe
frame
p2077
(dp2078
g3
I1037
sg4
F-90.0
sba(iframe
frame
p2079
(dp2080
g3
I1038
sg4
F-90.0
sba(iframe
frame
p2081
(dp2082
g3
I1039
sg4
F90.0
sba(iframe
frame
p2083
(dp2084
g3
I1040
sg4
F90.0
sba(iframe
frame
p2085
(dp2086
g3
I1041
sg4
F-90.0
sba(iframe
frame
p2087
(dp2088
g3
I1042
sg4
F90.0
sba(iframe
frame
p2089
(dp2090
g3
I1043
sg4
F-90.0
sba.